Certificate:
    Data:
        Version: 3 (0x2)
        Serial Number: 4 (0x4)
        Signature Algorithm: ecdsa-with-SHA256
        Issuer: C=FR, ST=Radius, L=Somewhere, O=Example Inc/emailAddress=admin@example.org, CN=Example Certificate Authority
        Validity
            Not Before: May 26 15:40:51 2021 GMT
            Not After : May 26 15:40:51 2022 GMT
        Subject: C=FR, ST=Radius, O=Example Inc, CN=Example user/emailAddress=user.example@example.org
        Subject Public Key Info:
            Public Key Algorithm: id-ecPublicKey
                Public-Key: (256 bit)
                pub:
                    04:40:e4:8b:ec:ae:cb:bd:a8:84:35:d7:d4:51:c2:
                    ca:04:c9:8c:04:48:5f:1f:82:c5:f0:6b:1d:ed:4d:
                    17:cb:68:52:2a:5d:e6:ad:07:8e:95:0a:d7:32:d8:
                    62:ff:59:2b:c3:88:5d:30:22:ce:76:ef:34:ae:15:
                    07:29:60:6d:36
                ASN1 OID: prime256v1
                NIST CURVE: P-256
        X509v3 extensions:
            X509v3 Basic Constraints: 
                CA:FALSE
            X509v3 Key Usage: 
                Digital Signature, Non Repudiation, Key Encipherment
            X509v3 Extended Key Usage: 
                TLS Web Client Authentication
            X509v3 CRL Distribution Points: 

                Full Name:
                  URI:http://www.example.com/example_ca.crl

            Authority Information Access: 
                OCSP - URI:http://www.example.org/ocsp

            X509v3 Subject Alternative Name: 
                email:user@example.org
    Signature Algorithm: ecdsa-with-SHA256
         30:45:02:21:00:e2:6e:04:ef:c6:ca:89:99:a8:c1:5d:65:55:
         d0:56:db:0b:91:09:e0:47:32:ea:9d:23:0c:6d:ca:9d:fa:8e:
         2b:02:20:63:68:ad:b6:01:2b:40:87:2f:a1:60:01:ff:1e:53:
         1d:70:a6:44:eb:bb:db:6a:b7:c4:7e:ff:d5:15:17:91:e5
-----BEGIN CERTIFICATE-----
MIICtTCCAlugAwIBAgIBBDAKBggqhkjOPQQDAjCBkjELMAkGA1UEBhMCRlIxDzAN
BgNVBAgMBlJhZGl1czESMBAGA1UEBwwJU29tZXdoZXJlMRQwEgYDVQQKDAtFeGFt
cGxlIEluYzEgMB4GCSqGSIb3DQEJARYRYWRtaW5AZXhhbXBsZS5vcmcxJjAkBgNV
BAMMHUV4YW1wbGUgQ2VydGlmaWNhdGUgQXV0aG9yaXR5MB4XDTIxMDUyNjE1NDA1
MVoXDTIyMDUyNjE1NDA1MVowdDELMAkGA1UEBhMCRlIxDzANBgNVBAgMBlJhZGl1
czEUMBIGA1UECgwLRXhhbXBsZSBJbmMxFTATBgNVBAMMDEV4YW1wbGUgdXNlcjEn
MCUGCSqGSIb3DQEJARYYdXNlci5leGFtcGxlQGV4YW1wbGUub3JnMFkwEwYHKoZI
zj0CAQYIKoZIzj0DAQcDQgAEQOSL7K7LvaiENdfUUcLKBMmMBEhfH4LF8Gsd7U0X
y2hSKl3mrQeOlQrXMthi/1krw4hdMCLOdu80rhUHKWBtNqOBvjCBuzAJBgNVHRME
AjAAMAsGA1UdDwQEAwIF4DATBgNVHSUEDDAKBggrBgEFBQcDAjA2BgNVHR8ELzAt
MCugKaAnhiVodHRwOi8vd3d3LmV4YW1wbGUuY29tL2V4YW1wbGVfY2EuY3JsMDcG
CCsGAQUFBwEBBCswKTAnBggrBgEFBQcwAYYbaHR0cDovL3d3dy5leGFtcGxlLm9y
Zy9vY3NwMBsGA1UdEQQUMBKBEHVzZXJAZXhhbXBsZS5vcmcwCgYIKoZIzj0EAwID
SAAwRQIhAOJuBO/GyomZqMFdZVXQVtsLkQngRzLqnSMMbcqd+o4rAiBjaK22AStA
hy+hYAH/HlMdcKZE67vbarfEfv/VFReR5Q==
-----END CERTIFICATE-----
