Certificate:
    Data:
        Version: 3 (0x2)
        Serial Number: 4 (0x4)
    Signature Algorithm: ecdsa-with-SHA256
        Issuer: C=FR, ST=Radius, L=Somewhere, O=Example Inc/emailAddress=admin@example.org, CN=Example Certificate Authority
        Validity
            Not Before: Mar 25 12:43:55 2019 GMT
            Not After : Mar 24 12:43:55 2020 GMT
        Subject: C=FR, ST=Radius, O=Example Inc, CN=Example user/emailAddress=user.example@example.org
        Subject Public Key Info:
            Public Key Algorithm: id-ecPublicKey
                Public-Key: (256 bit)
                pub:
                    04:45:aa:e7:77:fa:66:0c:0c:fe:38:68:50:ae:a5:
                    cc:9b:ab:6c:26:59:c8:46:1d:34:b4:c3:9e:6d:56:
                    72:46:1a:6b:2a:65:d6:00:db:91:f9:9e:4a:6b:73:
                    45:8d:cc:a3:76:ea:e4:46:06:ae:ad:10:f7:df:ab:
                    2c:bb:33:83:d6
                ASN1 OID: prime256v1
                NIST CURVE: P-256
        X509v3 extensions:
            X509v3 Basic Constraints:
                CA:FALSE
            X509v3 Key Usage:
                Digital Signature, Non Repudiation, Key Encipherment
            X509v3 Extended Key Usage:
                TLS Web Client Authentication
            X509v3 CRL Distribution Points:

                Full Name:
                  URI:http://www.example.com/example_ca.crl

            Authority Information Access:
                OCSP - URI:http://www.example.org/ocsp

            X509v3 Subject Alternative Name:
                email:user@example.org
    Signature Algorithm: ecdsa-with-SHA256
         30:45:02:20:19:91:90:4b:c5:83:3d:df:8c:56:cd:60:40:fe:
         19:06:81:a5:64:19:61:77:b8:f9:b2:62:1f:29:0e:bc:a2:d7:
         02:21:00:a3:85:30:91:b2:86:8f:03:c4:c9:fe:12:ec:95:95:
         de:6c:91:3c:11:34:bf:29:24:c3:17:f7:56:30:d7:e5:55
-----BEGIN CERTIFICATE-----
MIICtTCCAlugAwIBAgIBBDAKBggqhkjOPQQDAjCBkjELMAkGA1UEBhMCRlIxDzAN
BgNVBAgMBlJhZGl1czESMBAGA1UEBwwJU29tZXdoZXJlMRQwEgYDVQQKDAtFeGFt
cGxlIEluYzEgMB4GCSqGSIb3DQEJARYRYWRtaW5AZXhhbXBsZS5vcmcxJjAkBgNV
BAMMHUV4YW1wbGUgQ2VydGlmaWNhdGUgQXV0aG9yaXR5MB4XDTE5MDMyNTEyNDM1
NVoXDTIwMDMyNDEyNDM1NVowdDELMAkGA1UEBhMCRlIxDzANBgNVBAgMBlJhZGl1
czEUMBIGA1UECgwLRXhhbXBsZSBJbmMxFTATBgNVBAMMDEV4YW1wbGUgdXNlcjEn
MCUGCSqGSIb3DQEJARYYdXNlci5leGFtcGxlQGV4YW1wbGUub3JnMFkwEwYHKoZI
zj0CAQYIKoZIzj0DAQcDQgAERarnd/pmDAz+OGhQrqXMm6tsJlnIRh00tMOebVZy
RhprKmXWANuR+Z5Ka3NFjcyjdurkRgaurRD336ssuzOD1qOBvjCBuzAJBgNVHRME
AjAAMAsGA1UdDwQEAwIF4DATBgNVHSUEDDAKBggrBgEFBQcDAjA2BgNVHR8ELzAt
MCugKaAnhiVodHRwOi8vd3d3LmV4YW1wbGUuY29tL2V4YW1wbGVfY2EuY3JsMDcG
CCsGAQUFBwEBBCswKTAnBggrBgEFBQcwAYYbaHR0cDovL3d3dy5leGFtcGxlLm9y
Zy9vY3NwMBsGA1UdEQQUMBKBEHVzZXJAZXhhbXBsZS5vcmcwCgYIKoZIzj0EAwID
SAAwRQIgGZGQS8WDPd+MVs1gQP4ZBoGlZBlhd7j5smIfKQ68otcCIQCjhTCRsoaP
A8TJ/hLslZXebJE8ETS/KSTDF/dWMNflVQ==
-----END CERTIFICATE-----
