Certificate:
    Data:
        Version: 3 (0x2)
        Serial Number: 4 (0x4)
        Signature Algorithm: ecdsa-with-SHA256
        Issuer: C=FR, ST=Radius, L=Somewhere, O=Example Inc/emailAddress=admin@example.org, CN=Example Certificate Authority
        Validity
            Not Before: Mar 25 14:12:33 2020 GMT
            Not After : Mar 25 14:12:33 2021 GMT
        Subject: C=FR, ST=Radius, O=Example Inc, CN=Example user/emailAddress=user.example@example.org
        Subject Public Key Info:
            Public Key Algorithm: id-ecPublicKey
                Public-Key: (256 bit)
                pub:
                    04:89:64:b4:21:be:75:5c:66:69:ab:8f:ce:2d:a6:
                    87:c7:31:06:a1:c2:3b:7c:67:db:26:d0:4a:fb:7a:
                    3b:30:4f:05:ed:67:2e:b4:b5:ea:f8:c6:e6:80:b5:
                    01:a0:7f:b4:83:6c:49:28:f5:2b:e7:e8:f6:83:b8:
                    ef:b3:11:f2:38
                ASN1 OID: prime256v1
                NIST CURVE: P-256
        X509v3 extensions:
            X509v3 Basic Constraints: 
                CA:FALSE
            X509v3 Key Usage: 
                Digital Signature, Non Repudiation, Key Encipherment
            X509v3 Extended Key Usage: 
                TLS Web Client Authentication
            X509v3 CRL Distribution Points: 

                Full Name:
                  URI:http://www.example.com/example_ca.crl

            Authority Information Access: 
                OCSP - URI:http://www.example.org/ocsp

            X509v3 Subject Alternative Name: 
                email:user@example.org
    Signature Algorithm: ecdsa-with-SHA256
         30:46:02:21:00:8f:8f:96:96:1d:df:df:6a:28:98:06:f8:19:
         32:c3:55:e0:d8:6d:62:d6:be:3e:b3:13:18:1b:4b:a5:1f:ab:
         cb:02:21:00:e6:2c:1e:49:76:5d:ed:e5:15:7a:9a:8a:9d:0b:
         38:3f:bc:93:94:6f:7d:e2:0d:a5:35:b4:24:3b:76:18:55:0e
-----BEGIN CERTIFICATE-----
MIICtjCCAlugAwIBAgIBBDAKBggqhkjOPQQDAjCBkjELMAkGA1UEBhMCRlIxDzAN
BgNVBAgMBlJhZGl1czESMBAGA1UEBwwJU29tZXdoZXJlMRQwEgYDVQQKDAtFeGFt
cGxlIEluYzEgMB4GCSqGSIb3DQEJARYRYWRtaW5AZXhhbXBsZS5vcmcxJjAkBgNV
BAMMHUV4YW1wbGUgQ2VydGlmaWNhdGUgQXV0aG9yaXR5MB4XDTIwMDMyNTE0MTIz
M1oXDTIxMDMyNTE0MTIzM1owdDELMAkGA1UEBhMCRlIxDzANBgNVBAgMBlJhZGl1
czEUMBIGA1UECgwLRXhhbXBsZSBJbmMxFTATBgNVBAMMDEV4YW1wbGUgdXNlcjEn
MCUGCSqGSIb3DQEJARYYdXNlci5leGFtcGxlQGV4YW1wbGUub3JnMFkwEwYHKoZI
zj0CAQYIKoZIzj0DAQcDQgAEiWS0Ib51XGZpq4/OLaaHxzEGocI7fGfbJtBK+3o7
ME8F7WcutLXq+MbmgLUBoH+0g2xJKPUr5+j2g7jvsxHyOKOBvjCBuzAJBgNVHRME
AjAAMAsGA1UdDwQEAwIF4DATBgNVHSUEDDAKBggrBgEFBQcDAjA2BgNVHR8ELzAt
MCugKaAnhiVodHRwOi8vd3d3LmV4YW1wbGUuY29tL2V4YW1wbGVfY2EuY3JsMDcG
CCsGAQUFBwEBBCswKTAnBggrBgEFBQcwAYYbaHR0cDovL3d3dy5leGFtcGxlLm9y
Zy9vY3NwMBsGA1UdEQQUMBKBEHVzZXJAZXhhbXBsZS5vcmcwCgYIKoZIzj0EAwID
SQAwRgIhAI+PlpYd399qKJgG+Bkyw1Xg2G1i1r4+sxMYG0ulH6vLAiEA5iweSXZd
7eUVepqKnQs4P7yTlG994g2lNbQkO3YYVQ4=
-----END CERTIFICATE-----
