Certificate:
    Data:
        Version: 3 (0x2)
        Serial Number: 4 (0x4)
    Signature Algorithm: ecdsa-with-SHA256
        Issuer: C=FR, ST=Radius, L=Somewhere, O=Example Inc/emailAddress=admin@example.org, CN=Example Certificate Authority
        Validity
            Not Before: Mar 25 19:12:36 2021 GMT
            Not After : May 24 19:12:36 2021 GMT
        Subject: C=FR, ST=Radius, O=Example Inc, CN=Example user/emailAddress=user.example@example.org
        Subject Public Key Info:
            Public Key Algorithm: id-ecPublicKey
                Public-Key: (256 bit)
                pub: 
                    04:8a:fe:2c:a3:9c:ea:42:52:58:f3:a4:a9:96:c4:
                    9f:52:ab:d6:56:78:2e:ef:47:31:45:48:e0:e7:f0:
                    f2:92:7a:a7:5c:5d:3f:28:85:30:64:f3:b1:4e:79:
                    97:f0:ca:d3:1c:8d:83:4f:f0:2c:2e:67:b4:f0:9d:
                    78:4a:51:a3:71
                ASN1 OID: prime256v1
                NIST CURVE: P-256
        X509v3 extensions:
            X509v3 Basic Constraints: 
                CA:FALSE
            X509v3 Key Usage: 
                Digital Signature, Non Repudiation, Key Encipherment
            X509v3 Extended Key Usage: 
                TLS Web Client Authentication
            X509v3 CRL Distribution Points: 

                Full Name:
                  URI:http://www.example.com/example_ca.crl

            Authority Information Access: 
                OCSP - URI:http://www.example.org/ocsp

            X509v3 Subject Alternative Name: 
                email:user@example.org
    Signature Algorithm: ecdsa-with-SHA256
         30:45:02:21:00:e6:15:8b:b3:98:ed:f9:38:8e:12:6e:4f:16:
         13:39:3e:ac:16:ab:f1:28:79:7b:86:a6:4f:f3:1a:ad:98:11:
         b9:02:20:05:14:24:37:fb:36:31:5a:dd:f0:b1:12:aa:98:9f:
         aa:53:17:a5:69:fc:b4:3f:55:25:91:20:1b:6d:17:e1:a7
-----BEGIN CERTIFICATE-----
MIICtTCCAlugAwIBAgIBBDAKBggqhkjOPQQDAjCBkjELMAkGA1UEBhMCRlIxDzAN
BgNVBAgMBlJhZGl1czESMBAGA1UEBwwJU29tZXdoZXJlMRQwEgYDVQQKDAtFeGFt
cGxlIEluYzEgMB4GCSqGSIb3DQEJARYRYWRtaW5AZXhhbXBsZS5vcmcxJjAkBgNV
BAMMHUV4YW1wbGUgQ2VydGlmaWNhdGUgQXV0aG9yaXR5MB4XDTIxMDMyNTE5MTIz
NloXDTIxMDUyNDE5MTIzNlowdDELMAkGA1UEBhMCRlIxDzANBgNVBAgMBlJhZGl1
czEUMBIGA1UECgwLRXhhbXBsZSBJbmMxFTATBgNVBAMMDEV4YW1wbGUgdXNlcjEn
MCUGCSqGSIb3DQEJARYYdXNlci5leGFtcGxlQGV4YW1wbGUub3JnMFkwEwYHKoZI
zj0CAQYIKoZIzj0DAQcDQgAEiv4so5zqQlJY86SplsSfUqvWVngu70cxRUjg5/Dy
knqnXF0/KIUwZPOxTnmX8MrTHI2DT/AsLme08J14SlGjcaOBvjCBuzAJBgNVHRME
AjAAMAsGA1UdDwQEAwIF4DATBgNVHSUEDDAKBggrBgEFBQcDAjA2BgNVHR8ELzAt
MCugKaAnhiVodHRwOi8vd3d3LmV4YW1wbGUuY29tL2V4YW1wbGVfY2EuY3JsMDcG
CCsGAQUFBwEBBCswKTAnBggrBgEFBQcwAYYbaHR0cDovL3d3dy5leGFtcGxlLm9y
Zy9vY3NwMBsGA1UdEQQUMBKBEHVzZXJAZXhhbXBsZS5vcmcwCgYIKoZIzj0EAwID
SAAwRQIhAOYVi7OY7fk4jhJuTxYTOT6sFqvxKHl7hqZP8xqtmBG5AiAFFCQ3+zYx
Wt3wsRKqmJ+qUxelafy0P1UlkSAbbRfhpw==
-----END CERTIFICATE-----
