Certificate:
    Data:
        Version: 3 (0x2)
        Serial Number: 4 (0x4)
        Signature Algorithm: ecdsa-with-SHA256
        Issuer: C=FR, ST=Radius, L=Somewhere, O=Example Inc/emailAddress=admin@example.org, CN=Example Certificate Authority
        Validity
            Not Before: May 30 15:47:49 2022 GMT
            Not After : May 30 15:47:49 2023 GMT
        Subject: C=FR, ST=Radius, O=Example Inc, CN=Example user/emailAddress=user.example@example.org
        Subject Public Key Info:
            Public Key Algorithm: id-ecPublicKey
                Public-Key: (256 bit)
                pub:
                    04:30:29:33:51:49:51:3d:29:ec:38:2c:1c:0d:97:
                    12:6d:8a:a2:eb:e1:27:d6:c6:59:e6:04:47:bc:cd:
                    c2:14:b1:d9:b9:96:a2:d0:a2:28:eb:7f:5d:6e:40:
                    0d:34:12:18:ae:9f:18:7e:47:72:d2:62:7f:3a:2e:
                    ab:12:9b:15:59
                ASN1 OID: prime256v1
                NIST CURVE: P-256
        X509v3 extensions:
            X509v3 Basic Constraints: 
                CA:FALSE
            X509v3 Key Usage: 
                Digital Signature, Non Repudiation, Key Encipherment
            X509v3 Extended Key Usage: 
                TLS Web Client Authentication
            X509v3 CRL Distribution Points: 
                Full Name:
                  URI:http://www.example.com/example_ca.crl
            Authority Information Access: 
                OCSP - URI:http://www.example.org/ocsp
            X509v3 Subject Alternative Name: 
                email:user@example.org
            X509v3 Subject Key Identifier: 
                73:C1:F1:CF:7D:1D:D9:C4:C8:08:EB:AB:8E:48:36:30:34:D0:68:84
            X509v3 Authority Key Identifier: 
                0C:F8:55:9E:50:0B:3E:E0:84:7C:FF:4E:30:78:65:AE:86:7B:B0:92
    Signature Algorithm: ecdsa-with-SHA256
    Signature Value:
        30:45:02:20:42:77:98:7d:57:e4:b0:f3:4d:75:e8:ca:ed:df:
        d5:14:2b:ba:6e:66:72:c6:04:b1:8f:93:89:29:00:60:f1:dd:
        02:21:00:eb:08:05:42:20:74:01:56:5d:4e:96:af:44:62:8d:
        1b:9e:0a:91:a7:52:35:a1:90:a3:34:eb:69:98:d8:25:97
-----BEGIN CERTIFICATE-----
MIIC9TCCApugAwIBAgIBBDAKBggqhkjOPQQDAjCBkjELMAkGA1UEBhMCRlIxDzAN
BgNVBAgMBlJhZGl1czESMBAGA1UEBwwJU29tZXdoZXJlMRQwEgYDVQQKDAtFeGFt
cGxlIEluYzEgMB4GCSqGSIb3DQEJARYRYWRtaW5AZXhhbXBsZS5vcmcxJjAkBgNV
BAMMHUV4YW1wbGUgQ2VydGlmaWNhdGUgQXV0aG9yaXR5MB4XDTIyMDUzMDE1NDc0
OVoXDTIzMDUzMDE1NDc0OVowdDELMAkGA1UEBhMCRlIxDzANBgNVBAgMBlJhZGl1
czEUMBIGA1UECgwLRXhhbXBsZSBJbmMxFTATBgNVBAMMDEV4YW1wbGUgdXNlcjEn
MCUGCSqGSIb3DQEJARYYdXNlci5leGFtcGxlQGV4YW1wbGUub3JnMFkwEwYHKoZI
zj0CAQYIKoZIzj0DAQcDQgAEMCkzUUlRPSnsOCwcDZcSbYqi6+En1sZZ5gRHvM3C
FLHZuZai0KIo639dbkANNBIYrp8Yfkdy0mJ/Oi6rEpsVWaOB/jCB+zAJBgNVHRME
AjAAMAsGA1UdDwQEAwIF4DATBgNVHSUEDDAKBggrBgEFBQcDAjA2BgNVHR8ELzAt
MCugKaAnhiVodHRwOi8vd3d3LmV4YW1wbGUuY29tL2V4YW1wbGVfY2EuY3JsMDcG
CCsGAQUFBwEBBCswKTAnBggrBgEFBQcwAYYbaHR0cDovL3d3dy5leGFtcGxlLm9y
Zy9vY3NwMBsGA1UdEQQUMBKBEHVzZXJAZXhhbXBsZS5vcmcwHQYDVR0OBBYEFHPB
8c99HdnEyAjrq45INjA00GiEMB8GA1UdIwQYMBaAFAz4VZ5QCz7ghHz/TjB4Za6G
e7CSMAoGCCqGSM49BAMCA0gAMEUCIEJ3mH1X5LDzTXXoyu3f1RQrum5mcsYEsY+T
iSkAYPHdAiEA6wgFQiB0AVZdTpavRGKNG54KkadSNaGQozTraZjYJZc=
-----END CERTIFICATE-----
