Certificate:
    Data:
        Version: 3 (0x2)
        Serial Number: 6 (0x6)
    Signature Algorithm: ecdsa-with-SHA256
        Issuer: C=FR, ST=Radius, L=Somewhere, O=Example Inc/emailAddress=admin@example.org, CN=Example Certificate Authority
        Validity
            Not Before: Mar 25 12:43:55 2019 GMT
            Not After : Mar 24 12:43:55 2020 GMT
        Subject: C=FR, ST=Radius, O=Example Inc, CN=Example OCSP Responder Certificate/emailAddress=admin@example.org
        Subject Public Key Info:
            Public Key Algorithm: id-ecPublicKey
                Public-Key: (256 bit)
                pub:
                    04:7f:69:ff:23:e9:2b:93:81:15:8f:e6:19:a1:72:
                    95:1a:13:e9:8d:2c:77:47:55:e1:6b:43:9c:4b:ba:
                    9d:79:1f:c0:e7:e6:0f:af:66:28:5f:b4:c7:8e:8c:
                    c5:93:b1:80:9f:d9:b0:4e:5a:8a:d6:24:ec:4f:ff:
                    c6:88:73:d1:44
                ASN1 OID: prime256v1
                NIST CURVE: P-256
        X509v3 extensions:
            X509v3 Basic Constraints:
                CA:FALSE
            X509v3 Key Usage:
                Digital Signature, Non Repudiation, Key Encipherment
            X509v3 Extended Key Usage:
                OCSP Signing
    Signature Algorithm: ecdsa-with-SHA256
         30:45:02:20:0f:34:c9:38:bd:33:8b:18:ce:54:80:91:2b:b5:
         ee:35:f7:4d:ff:40:74:67:fd:f8:be:0f:99:23:29:2c:eb:f3:
         02:21:00:ff:8e:a5:82:f9:5d:02:0f:c5:ff:4d:f2:cb:7a:d3:
         a9:b6:5c:eb:98:3b:b2:3f:12:21:c7:37:69:ec:c6:ec:27
-----BEGIN CERTIFICATE-----
MIICNTCCAdugAwIBAgIBBjAKBggqhkjOPQQDAjCBkjELMAkGA1UEBhMCRlIxDzAN
BgNVBAgMBlJhZGl1czESMBAGA1UEBwwJU29tZXdoZXJlMRQwEgYDVQQKDAtFeGFt
cGxlIEluYzEgMB4GCSqGSIb3DQEJARYRYWRtaW5AZXhhbXBsZS5vcmcxJjAkBgNV
BAMMHUV4YW1wbGUgQ2VydGlmaWNhdGUgQXV0aG9yaXR5MB4XDTE5MDMyNTEyNDM1
NVoXDTIwMDMyNDEyNDM1NVowgYMxCzAJBgNVBAYTAkZSMQ8wDQYDVQQIDAZSYWRp
dXMxFDASBgNVBAoMC0V4YW1wbGUgSW5jMSswKQYDVQQDDCJFeGFtcGxlIE9DU1Ag
UmVzcG9uZGVyIENlcnRpZmljYXRlMSAwHgYJKoZIhvcNAQkBFhFhZG1pbkBleGFt
cGxlLm9yZzBZMBMGByqGSM49AgEGCCqGSM49AwEHA0IABH9p/yPpK5OBFY/mGaFy
lRoT6Y0sd0dV4WtDnEu6nXkfwOfmD69mKF+0x46MxZOxgJ/ZsE5aitYk7E//xohz
0USjLzAtMAkGA1UdEwQCMAAwCwYDVR0PBAQDAgXgMBMGA1UdJQQMMAoGCCsGAQUF
BwMJMAoGCCqGSM49BAMCA0gAMEUCIA80yTi9M4sYzlSAkSu17jX3Tf9AdGf9+L4P
mSMpLOvzAiEA/46lgvldAg/F/03yy3rTqbZc65g7sj8SIcc3aezG7Cc=
-----END CERTIFICATE-----
