Certificate:
    Data:
        Version: 3 (0x2)
        Serial Number: 6 (0x6)
        Signature Algorithm: ecdsa-with-SHA256
        Issuer: C=FR, ST=Radius, L=Somewhere, O=Example Inc/emailAddress=admin@example.org, CN=Example Certificate Authority
        Validity
            Not Before: Mar 25 14:12:33 2020 GMT
            Not After : Mar 25 14:12:33 2021 GMT
        Subject: C=FR, ST=Radius, O=Example Inc, CN=Example OCSP Responder Certificate/emailAddress=admin@example.org
        Subject Public Key Info:
            Public Key Algorithm: id-ecPublicKey
                Public-Key: (256 bit)
                pub:
                    04:8b:fa:8c:d3:9a:14:64:40:7f:ee:ce:93:0e:51:
                    77:ba:7a:9e:3c:cb:9a:94:9c:0c:f4:46:85:ba:14:
                    11:18:6d:29:91:6a:1a:f0:84:b0:7e:fe:2d:d3:c7:
                    d1:6d:b5:dc:5c:51:54:b0:a8:58:d6:a4:e5:1f:c3:
                    7e:07:1d:33:c1
                ASN1 OID: prime256v1
                NIST CURVE: P-256
        X509v3 extensions:
            X509v3 Basic Constraints: 
                CA:FALSE
            X509v3 Key Usage: 
                Digital Signature, Non Repudiation, Key Encipherment
            X509v3 Extended Key Usage: 
                OCSP Signing
    Signature Algorithm: ecdsa-with-SHA256
         30:46:02:21:00:cc:9c:ca:07:1f:57:1c:de:e5:5a:9d:ec:cd:
         15:6f:02:fe:89:bc:4f:e7:83:4b:6a:77:fb:80:4d:93:88:be:
         74:02:21:00:ef:33:20:56:24:02:bf:92:ff:6a:09:79:53:68:
         5c:f7:40:4c:16:6e:d8:2b:7f:51:a7:bb:9e:06:47:d3:bd:b4
-----BEGIN CERTIFICATE-----
MIICNjCCAdugAwIBAgIBBjAKBggqhkjOPQQDAjCBkjELMAkGA1UEBhMCRlIxDzAN
BgNVBAgMBlJhZGl1czESMBAGA1UEBwwJU29tZXdoZXJlMRQwEgYDVQQKDAtFeGFt
cGxlIEluYzEgMB4GCSqGSIb3DQEJARYRYWRtaW5AZXhhbXBsZS5vcmcxJjAkBgNV
BAMMHUV4YW1wbGUgQ2VydGlmaWNhdGUgQXV0aG9yaXR5MB4XDTIwMDMyNTE0MTIz
M1oXDTIxMDMyNTE0MTIzM1owgYMxCzAJBgNVBAYTAkZSMQ8wDQYDVQQIDAZSYWRp
dXMxFDASBgNVBAoMC0V4YW1wbGUgSW5jMSswKQYDVQQDDCJFeGFtcGxlIE9DU1Ag
UmVzcG9uZGVyIENlcnRpZmljYXRlMSAwHgYJKoZIhvcNAQkBFhFhZG1pbkBleGFt
cGxlLm9yZzBZMBMGByqGSM49AgEGCCqGSM49AwEHA0IABIv6jNOaFGRAf+7Okw5R
d7p6njzLmpScDPRGhboUERhtKZFqGvCEsH7+LdPH0W213FxRVLCoWNak5R/Dfgcd
M8GjLzAtMAkGA1UdEwQCMAAwCwYDVR0PBAQDAgXgMBMGA1UdJQQMMAoGCCsGAQUF
BwMJMAoGCCqGSM49BAMCA0kAMEYCIQDMnMoHH1cc3uVanezNFW8C/om8T+eDS2p3
+4BNk4i+dAIhAO8zIFYkAr+S/2oJeVNoXPdATBZu2Ct/Uae7ngZH0720
-----END CERTIFICATE-----
