Certificate:
    Data:
        Version: 3 (0x2)
        Serial Number: 6 (0x6)
        Signature Algorithm: ecdsa-with-SHA256
        Issuer: C=FR, ST=Radius, L=Somewhere, O=Example Inc/emailAddress=admin@example.org, CN=Example Certificate Authority
        Validity
            Not Before: May 30 15:47:49 2022 GMT
            Not After : May 30 15:47:49 2023 GMT
        Subject: C=FR, ST=Radius, O=Example Inc, CN=Example OCSP Responder Certificate/emailAddress=admin@example.org
        Subject Public Key Info:
            Public Key Algorithm: id-ecPublicKey
                Public-Key: (256 bit)
                pub:
                    04:21:3d:15:16:0c:1f:95:d2:a0:7c:7d:38:e6:87:
                    13:6f:68:db:0a:6c:15:dc:ac:39:c1:38:c7:1f:c2:
                    44:9e:a4:d4:5b:79:fb:9e:2a:1a:f4:91:51:f8:8a:
                    da:38:44:80:e2:cf:86:b8:a8:0f:ed:6f:b3:77:4b:
                    eb:11:5d:d4:aa
                ASN1 OID: prime256v1
                NIST CURVE: P-256
        X509v3 extensions:
            X509v3 Basic Constraints: 
                CA:FALSE
            X509v3 Key Usage: 
                Digital Signature, Non Repudiation, Key Encipherment
            X509v3 Extended Key Usage: 
                OCSP Signing
            X509v3 Subject Key Identifier: 
                2C:98:00:50:8D:9E:45:A6:DE:5B:F8:62:7C:A2:E8:EF:2A:69:EE:80
            X509v3 Authority Key Identifier: 
                0C:F8:55:9E:50:0B:3E:E0:84:7C:FF:4E:30:78:65:AE:86:7B:B0:92
    Signature Algorithm: ecdsa-with-SHA256
    Signature Value:
        30:45:02:21:00:96:fa:f9:5f:ee:8f:1c:fa:27:26:c0:39:e5:
        3d:b5:3a:b9:ed:20:00:1b:da:c5:d1:7f:b6:cb:b9:c3:16:31:
        ed:02:20:5a:75:ae:92:ca:c2:e8:c5:84:c3:0e:76:dc:1b:cd:
        4e:60:22:0d:67:9a:66:72:8d:3a:92:f8:fa:ae:cc:dd:1a
-----BEGIN CERTIFICATE-----
MIICdTCCAhugAwIBAgIBBjAKBggqhkjOPQQDAjCBkjELMAkGA1UEBhMCRlIxDzAN
BgNVBAgMBlJhZGl1czESMBAGA1UEBwwJU29tZXdoZXJlMRQwEgYDVQQKDAtFeGFt
cGxlIEluYzEgMB4GCSqGSIb3DQEJARYRYWRtaW5AZXhhbXBsZS5vcmcxJjAkBgNV
BAMMHUV4YW1wbGUgQ2VydGlmaWNhdGUgQXV0aG9yaXR5MB4XDTIyMDUzMDE1NDc0
OVoXDTIzMDUzMDE1NDc0OVowgYMxCzAJBgNVBAYTAkZSMQ8wDQYDVQQIDAZSYWRp
dXMxFDASBgNVBAoMC0V4YW1wbGUgSW5jMSswKQYDVQQDDCJFeGFtcGxlIE9DU1Ag
UmVzcG9uZGVyIENlcnRpZmljYXRlMSAwHgYJKoZIhvcNAQkBFhFhZG1pbkBleGFt
cGxlLm9yZzBZMBMGByqGSM49AgEGCCqGSM49AwEHA0IABCE9FRYMH5XSoHx9OOaH
E29o2wpsFdysOcE4xx/CRJ6k1Ft5+54qGvSRUfiK2jhEgOLPhrioD+1vs3dL6xFd
1KqjbzBtMAkGA1UdEwQCMAAwCwYDVR0PBAQDAgXgMBMGA1UdJQQMMAoGCCsGAQUF
BwMJMB0GA1UdDgQWBBQsmABQjZ5Fpt5b+GJ8oujvKmnugDAfBgNVHSMEGDAWgBQM
+FWeUAs+4IR8/04weGWuhnuwkjAKBggqhkjOPQQDAgNIADBFAiEAlvr5X+6PHPon
JsA55T21OrntIAAb2sXRf7bLucMWMe0CIFp1rpLKwujFhMMOdtwbzU5gIg1nmmZy
jTqS+PquzN0a
-----END CERTIFICATE-----
