Certificate:
    Data:
        Version: 3 (0x2)
        Serial Number: 6 (0x6)
        Signature Algorithm: ecdsa-with-SHA1
        Issuer: C=FR, ST=Radius, L=Somewhere, O=Example Inc/emailAddress=admin@example.org, CN=Example Certificate Authority
        Validity
            Not Before: Mar 24 20:00:59 2018 GMT
            Not After : Mar 24 20:00:59 2019 GMT
        Subject: C=FR, ST=Radius, O=Example Inc, CN=Example OCSP Responder Certificate/emailAddress=admin@example.org
        Subject Public Key Info:
            Public Key Algorithm: id-ecPublicKey
            EC Public Key:
                pub:
                    04:9f:11:2d:9b:d0:76:07:2c:01:8a:9a:28:29:10:
                    78:ec:67:f8:2b:f9:c3:15:8c:1b:3b:ef:d4:f1:93:
                    18:07:cf:33:bd:50:85:f2:a1:2a:de:59:a3:59:84:
                    ca:25:f8:46:34:6b:d4:bc:7d:52:42:fa:9a:78:40:
                    ec:d1:93:f0:bd
                ASN1 OID: prime256v1
        X509v3 extensions:
            X509v3 Basic Constraints:
                CA:FALSE
            X509v3 Key Usage:
                Digital Signature, Non Repudiation, Key Encipherment
            X509v3 Extended Key Usage:
                OCSP Signing
    Signature Algorithm: ecdsa-with-SHA1
        30:44:02:20:57:10:5d:3c:52:57:63:32:fa:db:00:33:c8:aa:
        28:dd:2e:6f:4f:70:6f:29:39:33:ca:61:0f:91:a2:5b:a0:bb:
        02:20:3a:1f:fa:43:71:95:33:75:b3:3b:5a:7b:fb:85:ea:c6:
        3f:96:00:b6:71:11:b0:bf:a9:0c:66:d1:f6:32:f2:3f
-----BEGIN CERTIFICATE-----
MIICMjCCAdqgAwIBAgIBBjAJBgcqhkjOPQQBMIGSMQswCQYDVQQGEwJGUjEPMA0G
A1UECAwGUmFkaXVzMRIwEAYDVQQHDAlTb21ld2hlcmUxFDASBgNVBAoMC0V4YW1w
bGUgSW5jMSAwHgYJKoZIhvcNAQkBFhFhZG1pbkBleGFtcGxlLm9yZzEmMCQGA1UE
AwwdRXhhbXBsZSBDZXJ0aWZpY2F0ZSBBdXRob3JpdHkwHhcNMTgwMzI0MjAwMDU5
WhcNMTkwMzI0MjAwMDU5WjCBgzELMAkGA1UEBhMCRlIxDzANBgNVBAgMBlJhZGl1
czEUMBIGA1UECgwLRXhhbXBsZSBJbmMxKzApBgNVBAMMIkV4YW1wbGUgT0NTUCBS
ZXNwb25kZXIgQ2VydGlmaWNhdGUxIDAeBgkqhkiG9w0BCQEWEWFkbWluQGV4YW1w
bGUub3JnMFkwEwYHKoZIzj0CAQYIKoZIzj0DAQcDQgAEnxEtm9B2BywBipooKRB4
7Gf4K/nDFYwbO+/U8ZMYB88zvVCF8qEq3lmjWYTKJfhGNGvUvH1SQvqaeEDs0ZPw
vaMvMC0wCQYDVR0TBAIwADALBgNVHQ8EBAMCBeAwEwYDVR0lBAwwCgYIKwYBBQUH
AwkwCQYHKoZIzj0EAQNHADBEAiBXEF08UldjMvrbADPIqijdLm9PcG8pOTPKYQ+R
oluguwIgOh/6Q3GVM3WzO1p7+4Xqxj+WALZxEbC/qQxm0fYy8j8=
-----END CERTIFICATE-----
