Certificate:
    Data:
        Version: 3 (0x2)
        Serial Number: 6 (0x6)
    Signature Algorithm: ecdsa-with-SHA256
        Issuer: C=FR, ST=Radius, L=Somewhere, O=Example Inc/emailAddress=admin@example.org, CN=Example Certificate Authority
        Validity
            Not Before: Mar 25 19:12:36 2021 GMT
            Not After : May 24 19:12:36 2021 GMT
        Subject: C=FR, ST=Radius, O=Example Inc, CN=Example OCSP Responder Certificate/emailAddress=admin@example.org
        Subject Public Key Info:
            Public Key Algorithm: id-ecPublicKey
                Public-Key: (256 bit)
                pub: 
                    04:95:c8:97:45:e3:56:81:15:bd:eb:28:2f:d5:f0:
                    bc:d4:95:31:64:29:cc:68:22:5e:a0:8f:ed:47:ba:
                    8b:e6:8b:6f:f8:c0:61:4c:92:8d:93:f1:4a:3f:e0:
                    5f:86:f3:5a:4a:d9:0f:36:5b:12:b7:2c:99:db:57:
                    c1:8d:1b:70:af
                ASN1 OID: prime256v1
                NIST CURVE: P-256
        X509v3 extensions:
            X509v3 Basic Constraints: 
                CA:FALSE
            X509v3 Key Usage: 
                Digital Signature, Non Repudiation, Key Encipherment
            X509v3 Extended Key Usage: 
                OCSP Signing
    Signature Algorithm: ecdsa-with-SHA256
         30:44:02:20:75:0f:f5:b7:12:6a:d6:16:a6:76:e0:27:e1:b4:
         28:1b:f7:cb:58:d8:b1:ee:84:93:8e:5a:9c:75:55:88:64:f7:
         02:20:65:50:43:00:77:da:1d:8d:3f:12:87:bc:b4:ec:a6:b8:
         57:b7:29:20:be:ea:79:ed:cc:ff:de:1e:29:ec:2e:28
-----BEGIN CERTIFICATE-----
MIICNDCCAdugAwIBAgIBBjAKBggqhkjOPQQDAjCBkjELMAkGA1UEBhMCRlIxDzAN
BgNVBAgMBlJhZGl1czESMBAGA1UEBwwJU29tZXdoZXJlMRQwEgYDVQQKDAtFeGFt
cGxlIEluYzEgMB4GCSqGSIb3DQEJARYRYWRtaW5AZXhhbXBsZS5vcmcxJjAkBgNV
BAMMHUV4YW1wbGUgQ2VydGlmaWNhdGUgQXV0aG9yaXR5MB4XDTIxMDMyNTE5MTIz
NloXDTIxMDUyNDE5MTIzNlowgYMxCzAJBgNVBAYTAkZSMQ8wDQYDVQQIDAZSYWRp
dXMxFDASBgNVBAoMC0V4YW1wbGUgSW5jMSswKQYDVQQDDCJFeGFtcGxlIE9DU1Ag
UmVzcG9uZGVyIENlcnRpZmljYXRlMSAwHgYJKoZIhvcNAQkBFhFhZG1pbkBleGFt
cGxlLm9yZzBZMBMGByqGSM49AgEGCCqGSM49AwEHA0IABJXIl0XjVoEVvesoL9Xw
vNSVMWQpzGgiXqCP7Ue6i+aLb/jAYUySjZPxSj/gX4bzWkrZDzZbErcsmdtXwY0b
cK+jLzAtMAkGA1UdEwQCMAAwCwYDVR0PBAQDAgXgMBMGA1UdJQQMMAoGCCsGAQUF
BwMJMAoGCCqGSM49BAMCA0cAMEQCIHUP9bcSatYWpnbgJ+G0KBv3y1jYse6Ek45a
nHVViGT3AiBlUEMAd9odjT8Sh7y07Ka4V7cpIL7qee3M/94eKewuKA==
-----END CERTIFICATE-----
