Certificate:
    Data:
        Version: 3 (0x2)
        Serial Number: 6 (0x6)
        Signature Algorithm: ecdsa-with-SHA256
        Issuer: C=FR, ST=Radius, L=Somewhere, O=Example Inc/emailAddress=admin@example.org, CN=Example Certificate Authority
        Validity
            Not Before: May 26 15:40:51 2021 GMT
            Not After : May 26 15:40:51 2022 GMT
        Subject: C=FR, ST=Radius, O=Example Inc, CN=Example OCSP Responder Certificate/emailAddress=admin@example.org
        Subject Public Key Info:
            Public Key Algorithm: id-ecPublicKey
                Public-Key: (256 bit)
                pub:
                    04:47:09:cb:4a:01:35:f0:3c:cd:98:80:3d:bd:cc:
                    9d:8b:c8:f5:04:2c:61:49:8f:8a:56:eb:f6:70:4b:
                    ee:ef:69:83:32:f8:24:39:de:87:9e:33:a7:ca:fd:
                    28:94:92:ce:c8:4d:58:dc:bc:23:79:a9:29:77:4f:
                    56:50:75:2a:54
                ASN1 OID: prime256v1
                NIST CURVE: P-256
        X509v3 extensions:
            X509v3 Basic Constraints: 
                CA:FALSE
            X509v3 Key Usage: 
                Digital Signature, Non Repudiation, Key Encipherment
            X509v3 Extended Key Usage: 
                OCSP Signing
    Signature Algorithm: ecdsa-with-SHA256
         30:45:02:21:00:ea:93:b2:80:c9:b9:b5:d9:ea:8c:21:8e:44:
         01:40:91:ca:56:ad:7b:26:a6:5d:19:01:6d:2b:69:7c:97:a2:
         86:02:20:0b:ef:b5:1a:77:80:36:65:1a:b4:8c:15:57:b3:f3:
         42:82:02:49:65:16:63:3f:a2:35:40:c3:ee:99:2e:11:c4
-----BEGIN CERTIFICATE-----
MIICNTCCAdugAwIBAgIBBjAKBggqhkjOPQQDAjCBkjELMAkGA1UEBhMCRlIxDzAN
BgNVBAgMBlJhZGl1czESMBAGA1UEBwwJU29tZXdoZXJlMRQwEgYDVQQKDAtFeGFt
cGxlIEluYzEgMB4GCSqGSIb3DQEJARYRYWRtaW5AZXhhbXBsZS5vcmcxJjAkBgNV
BAMMHUV4YW1wbGUgQ2VydGlmaWNhdGUgQXV0aG9yaXR5MB4XDTIxMDUyNjE1NDA1
MVoXDTIyMDUyNjE1NDA1MVowgYMxCzAJBgNVBAYTAkZSMQ8wDQYDVQQIDAZSYWRp
dXMxFDASBgNVBAoMC0V4YW1wbGUgSW5jMSswKQYDVQQDDCJFeGFtcGxlIE9DU1Ag
UmVzcG9uZGVyIENlcnRpZmljYXRlMSAwHgYJKoZIhvcNAQkBFhFhZG1pbkBleGFt
cGxlLm9yZzBZMBMGByqGSM49AgEGCCqGSM49AwEHA0IABEcJy0oBNfA8zZiAPb3M
nYvI9QQsYUmPilbr9nBL7u9pgzL4JDneh54zp8r9KJSSzshNWNy8I3mpKXdPVlB1
KlSjLzAtMAkGA1UdEwQCMAAwCwYDVR0PBAQDAgXgMBMGA1UdJQQMMAoGCCsGAQUF
BwMJMAoGCCqGSM49BAMCA0gAMEUCIQDqk7KAybm12eqMIY5EAUCRylateyamXRkB
bStpfJeihgIgC++1GneANmUatIwVV7PzQoICSWUWYz+iNUDD7pkuEcQ=
-----END CERTIFICATE-----
