Certificate:
    Data:
        Version: 3 (0x2)
        Serial Number: 2 (0x2)
    Signature Algorithm: ecdsa-with-SHA256
        Issuer: C=FR, ST=Radius, L=Somewhere, O=Example Inc/emailAddress=admin@example.org, CN=Example Certificate Authority
        Validity
            Not Before: Mar 25 12:43:55 2019 GMT
            Not After : Mar 24 12:43:55 2020 GMT
        Subject: C=FR, ST=Radius, O=Example Inc, CN=Example Server Certificate/emailAddress=admin@example.org
        Subject Public Key Info:
            Public Key Algorithm: id-ecPublicKey
                Public-Key: (256 bit)
                pub:
                    04:43:56:66:a5:0c:17:a1:8b:7d:54:14:46:ba:25:
                    6f:a7:1e:bd:45:19:b4:c4:e0:ac:36:36:93:36:d0:
                    3e:33:a6:32:18:32:03:3a:e2:01:fb:ef:20:59:36:
                    9f:9f:54:26:ec:31:6c:e5:9e:88:24:8a:9e:64:d6:
                    bb:91:b9:e4:16
                ASN1 OID: prime256v1
                NIST CURVE: P-256
        X509v3 extensions:
            X509v3 Basic Constraints:
                CA:FALSE
            X509v3 Key Usage:
                Digital Signature, Non Repudiation, Key Encipherment
            X509v3 Extended Key Usage:
                TLS Web Server Authentication
            X509v3 CRL Distribution Points:

                Full Name:
                  URI:http://www.example.com/example_ca.crl

            Authority Information Access:
                OCSP - URI:http://www.example.org/ocsp

    Signature Algorithm: ecdsa-with-SHA256
         30:44:02:20:15:1a:c7:dc:7a:77:cb:e1:d6:fe:1d:52:ac:3f:
         92:45:30:e8:a1:8e:24:9b:ca:e2:c0:df:b0:6c:f6:bb:a1:7c:
         02:20:05:b6:e4:05:b0:b9:ed:c4:13:11:a9:03:1e:6f:8e:3a:
         0f:93:11:21:53:8f:b1:df:e2:b5:96:29:cc:a1:d7:da
-----BEGIN CERTIFICATE-----
MIICnjCCAkWgAwIBAgIBAjAKBggqhkjOPQQDAjCBkjELMAkGA1UEBhMCRlIxDzAN
BgNVBAgMBlJhZGl1czESMBAGA1UEBwwJU29tZXdoZXJlMRQwEgYDVQQKDAtFeGFt
cGxlIEluYzEgMB4GCSqGSIb3DQEJARYRYWRtaW5AZXhhbXBsZS5vcmcxJjAkBgNV
BAMMHUV4YW1wbGUgQ2VydGlmaWNhdGUgQXV0aG9yaXR5MB4XDTE5MDMyNTEyNDM1
NVoXDTIwMDMyNDEyNDM1NVowezELMAkGA1UEBhMCRlIxDzANBgNVBAgMBlJhZGl1
czEUMBIGA1UECgwLRXhhbXBsZSBJbmMxIzAhBgNVBAMMGkV4YW1wbGUgU2VydmVy
IENlcnRpZmljYXRlMSAwHgYJKoZIhvcNAQkBFhFhZG1pbkBleGFtcGxlLm9yZzBZ
MBMGByqGSM49AgEGCCqGSM49AwEHA0IABENWZqUMF6GLfVQURrolb6cevUUZtMTg
rDY2kzbQPjOmMhgyAzriAfvvIFk2n59UJuwxbOWeiCSKnmTWu5G55BajgaEwgZ4w
CQYDVR0TBAIwADALBgNVHQ8EBAMCBeAwEwYDVR0lBAwwCgYIKwYBBQUHAwEwNgYD
VR0fBC8wLTAroCmgJ4YlaHR0cDovL3d3dy5leGFtcGxlLmNvbS9leGFtcGxlX2Nh
LmNybDA3BggrBgEFBQcBAQQrMCkwJwYIKwYBBQUHMAGGG2h0dHA6Ly93d3cuZXhh
bXBsZS5vcmcvb2NzcDAKBggqhkjOPQQDAgNHADBEAiAVGsfcenfL4db+HVKsP5JF
MOihjiSbyuLA37Bs9ruhfAIgBbbkBbC57cQTEakDHm+OOg+TESFTj7Hf4rWWKcyh
19o=
-----END CERTIFICATE-----
