Certificate:
    Data:
        Version: 3 (0x2)
        Serial Number: 2 (0x2)
        Signature Algorithm: ecdsa-with-SHA256
        Issuer: C=FR, ST=Radius, L=Somewhere, O=Example Inc/emailAddress=admin@example.org, CN=Example Certificate Authority
        Validity
            Not Before: May 30 15:47:49 2022 GMT
            Not After : May 30 15:47:49 2023 GMT
        Subject: C=FR, ST=Radius, O=Example Inc, CN=Example Server Certificate/emailAddress=admin@example.org
        Subject Public Key Info:
            Public Key Algorithm: id-ecPublicKey
                Public-Key: (256 bit)
                pub:
                    04:a7:f1:e5:08:3c:36:51:cd:ca:ee:ad:86:6b:69:
                    51:84:d1:4c:8a:cb:b7:91:1b:9e:ed:8c:74:59:38:
                    e6:fd:aa:df:66:30:67:39:f1:0e:05:44:37:8e:0d:
                    4d:82:16:ee:99:c5:ba:b1:43:23:ca:b7:61:e6:50:
                    06:3c:41:3b:1f
                ASN1 OID: prime256v1
                NIST CURVE: P-256
        X509v3 extensions:
            X509v3 Subject Key Identifier: 
                59:BA:7E:B2:60:1F:50:66:38:A4:40:D6:25:6B:71:4E:71:F1:00:74
            X509v3 Authority Key Identifier: 
                keyid:0C:F8:55:9E:50:0B:3E:E0:84:7C:FF:4E:30:78:65:AE:86:7B:B0:92
                DirName:/C=FR/ST=Radius/L=Somewhere/O=Example Inc/emailAddress=admin@example.org/CN=Example Certificate Authority
                serial:31:6F:2D:2C:FD:92:DA:2C:FF:75:E4:9E:DA:89:8E:C4:5C:50:5C:41
            X509v3 Basic Constraints: 
                CA:FALSE
            X509v3 Key Usage: 
                Digital Signature, Non Repudiation, Key Encipherment
            X509v3 Extended Key Usage: 
                TLS Web Server Authentication, 1.3.6.1.5.5.7.3.14
            X509v3 CRL Distribution Points: 
                Full Name:
                  URI:http://www.example.com/example_ca.crl
            Authority Information Access: 
                OCSP - URI:http://www.example.org/ocsp
            X509v3 Subject Alternative Name: 
                DNS:radius.example.org, othername: NAIRealm::*.example.com
    Signature Algorithm: ecdsa-with-SHA256
    Signature Value:
        30:44:02:20:78:44:82:f0:94:24:ff:9c:b7:f3:26:ba:09:ac:
        68:5b:82:7e:72:88:b8:c7:3b:0e:28:8e:7a:9b:ba:d2:40:af:
        02:20:6d:d2:92:bc:86:2e:cb:96:33:5d:b9:2e:ef:39:97:6d:
        9a:4b:c8:81:c6:0d:10:c3:a0:74:77:7c:4c:9b:95:1b
-----BEGIN CERTIFICATE-----
MIID2jCCA4GgAwIBAgIBAjAKBggqhkjOPQQDAjCBkjELMAkGA1UEBhMCRlIxDzAN
BgNVBAgMBlJhZGl1czESMBAGA1UEBwwJU29tZXdoZXJlMRQwEgYDVQQKDAtFeGFt
cGxlIEluYzEgMB4GCSqGSIb3DQEJARYRYWRtaW5AZXhhbXBsZS5vcmcxJjAkBgNV
BAMMHUV4YW1wbGUgQ2VydGlmaWNhdGUgQXV0aG9yaXR5MB4XDTIyMDUzMDE1NDc0
OVoXDTIzMDUzMDE1NDc0OVowezELMAkGA1UEBhMCRlIxDzANBgNVBAgMBlJhZGl1
czEUMBIGA1UECgwLRXhhbXBsZSBJbmMxIzAhBgNVBAMMGkV4YW1wbGUgU2VydmVy
IENlcnRpZmljYXRlMSAwHgYJKoZIhvcNAQkBFhFhZG1pbkBleGFtcGxlLm9yZzBZ
MBMGByqGSM49AgEGCCqGSM49AwEHA0IABKfx5Qg8NlHNyu6thmtpUYTRTIrLt5Eb
nu2MdFk45v2q32YwZznxDgVEN44NTYIW7pnFurFDI8q3YeZQBjxBOx+jggHcMIIB
2DAdBgNVHQ4EFgQUWbp+smAfUGY4pEDWJWtxTnHxAHQwgdIGA1UdIwSByjCBx4AU
DPhVnlALPuCEfP9OMHhlroZ7sJKhgZikgZUwgZIxCzAJBgNVBAYTAkZSMQ8wDQYD
VQQIDAZSYWRpdXMxEjAQBgNVBAcMCVNvbWV3aGVyZTEUMBIGA1UECgwLRXhhbXBs
ZSBJbmMxIDAeBgkqhkiG9w0BCQEWEWFkbWluQGV4YW1wbGUub3JnMSYwJAYDVQQD
DB1FeGFtcGxlIENlcnRpZmljYXRlIEF1dGhvcml0eYIUMW8tLP2S2iz/deSe2omO
xFxQXEEwCQYDVR0TBAIwADALBgNVHQ8EBAMCBeAwHQYDVR0lBBYwFAYIKwYBBQUH
AwEGCCsGAQUFBwMOMDYGA1UdHwQvMC0wK6ApoCeGJWh0dHA6Ly93d3cuZXhhbXBs
ZS5jb20vZXhhbXBsZV9jYS5jcmwwNwYIKwYBBQUHAQEEKzApMCcGCCsGAQUFBzAB
hhtodHRwOi8vd3d3LmV4YW1wbGUub3JnL29jc3AwOgYDVR0RBDMwMYIScmFkaXVz
LmV4YW1wbGUub3JnoBsGCCsGAQUFBwgIoA8MDSouZXhhbXBsZS5jb20wCgYIKoZI
zj0EAwIDRwAwRAIgeESC8JQk/5y38ya6CaxoW4J+coi4xzsOKI56m7rSQK8CIG3S
kryGLsuWM125Lu85l22aS8iBxg0Qw6B0d3xMm5Ub
-----END CERTIFICATE-----
