Certificate:
    Data:
        Version: 3 (0x2)
        Serial Number: 3 (0x3)
    Signature Algorithm: sha256WithRSAEncryption
        Issuer: C=FR, ST=Radius, L=Somewhere, O=Example Inc/emailAddress=admin@example.org, CN=Example Certificate Authority
        Validity
            Not Before: Mar 25 12:43:55 2019 GMT
            Not After : Mar 24 12:43:55 2020 GMT
        Subject: C=FR, ST=Radius, O=Example Inc, CN=Example user/emailAddress=user.example@example.org
        Subject Public Key Info:
            Public Key Algorithm: rsaEncryption
                Public-Key: (2048 bit)
                Modulus:
                    00:d1:6c:cf:0d:ba:6b:a1:97:d5:bc:f4:ad:08:97:
                    12:3b:02:20:79:52:6f:e5:1c:c7:62:55:54:50:ca:
                    15:ef:0e:84:e9:86:ba:e5:2f:06:7c:d6:97:09:62:
                    8f:a9:3e:af:6f:a5:c4:55:d5:6b:14:98:ba:0f:96:
                    fa:2e:0b:d3:7e:70:fe:fc:95:67:70:b6:9e:fc:f3:
                    4b:84:3e:04:d4:65:87:0c:ec:9b:8a:71:65:be:e2:
                    f2:fe:89:4e:9b:07:f1:41:de:49:8d:10:2f:82:83:
                    b0:02:d7:b5:5f:8f:22:ea:7e:98:dc:2a:40:ef:0b:
                    87:97:47:e9:37:49:a3:8d:20:47:5a:90:b7:53:da:
                    57:1c:ce:75:2c:36:2f:54:b4:0b:10:e2:10:92:fd:
                    87:87:bf:ed:ae:38:38:59:f0:92:68:a8:4b:cb:86:
                    f6:f7:f8:cd:93:ed:22:7c:f9:8f:99:83:6a:ce:be:
                    f1:1a:a1:80:79:0c:63:8f:26:87:ec:3a:05:c6:da:
                    50:de:25:87:d3:29:ab:97:e7:7a:6c:d0:b0:16:4a:
                    a9:06:f6:24:43:ba:bc:e6:de:38:f9:52:37:10:11:
                    20:c9:54:7a:02:b5:c0:ab:cc:b6:64:73:40:01:e7:
                    a4:3b:86:af:94:a0:7a:98:19:d9:cd:bf:3c:20:6e:
                    6e:1b
                Exponent: 65537 (0x10001)
        X509v3 extensions:
            X509v3 Basic Constraints:
                CA:FALSE
            X509v3 Key Usage:
                Digital Signature, Non Repudiation, Key Encipherment
            X509v3 Extended Key Usage:
                TLS Web Client Authentication
            X509v3 CRL Distribution Points:

                Full Name:
                  URI:http://www.example.com/example_ca.crl

            Authority Information Access:
                OCSP - URI:http://www.example.org/ocsp

            X509v3 Subject Alternative Name:
                email:user@example.org
    Signature Algorithm: sha256WithRSAEncryption
         19:1b:df:6b:2f:7b:61:6b:a5:84:45:e3:47:ec:02:6c:33:b8:
         67:99:78:51:1c:f3:e7:a1:70:67:1e:a9:4f:bb:f5:b6:a3:f5:
         c4:96:e4:08:a8:68:05:9d:1f:b9:3d:2b:3d:92:5d:99:24:3b:
         dc:fa:e8:71:71:5c:50:ea:7d:92:a1:a5:a0:c7:20:6b:c3:ad:
         4d:27:fe:ee:85:0e:2b:d0:e8:6e:65:43:fa:2c:3c:e5:92:41:
         55:8e:a4:22:57:86:c0:2e:b5:22:c4:62:73:03:25:42:fc:8a:
         91:17:62:48:69:c5:c8:44:70:90:76:57:fe:ef:67:e5:7a:70:
         0b:ae:72:0f:3f:b2:54:c9:82:16:49:00:31:d0:1a:db:3e:7b:
         71:2c:f5:f2:e2:f5:cf:14:22:53:e0:c5:a4:23:e0:21:1b:ca:
         11:f1:f3:d0:fa:66:ee:b4:88:4d:d9:22:38:5d:25:cc:61:d0:
         0f:c1:58:08:85:68:61:53:87:0e:fe:a3:09:df:5a:c5:5c:b5:
         70:51:79:59:14:8d:64:bf:54:ae:49:c5:1e:ed:a5:8a:79:18:
         18:7a:59:f4:36:cf:58:66:39:5c:bc:8c:bd:ba:73:5a:e8:e4:
         ee:cc:f1:12:09:57:29:95:da:84:35:e1:75:96:e3:80:34:3f:
         af:27:28:7f
-----BEGIN CERTIFICATE-----
MIIEQTCCAymgAwIBAgIBAzANBgkqhkiG9w0BAQsFADCBkjELMAkGA1UEBhMCRlIx
DzANBgNVBAgMBlJhZGl1czESMBAGA1UEBwwJU29tZXdoZXJlMRQwEgYDVQQKDAtF
eGFtcGxlIEluYzEgMB4GCSqGSIb3DQEJARYRYWRtaW5AZXhhbXBsZS5vcmcxJjAk
BgNVBAMMHUV4YW1wbGUgQ2VydGlmaWNhdGUgQXV0aG9yaXR5MB4XDTE5MDMyNTEy
NDM1NVoXDTIwMDMyNDEyNDM1NVowdDELMAkGA1UEBhMCRlIxDzANBgNVBAgMBlJh
ZGl1czEUMBIGA1UECgwLRXhhbXBsZSBJbmMxFTATBgNVBAMMDEV4YW1wbGUgdXNl
cjEnMCUGCSqGSIb3DQEJARYYdXNlci5leGFtcGxlQGV4YW1wbGUub3JnMIIBIjAN
BgkqhkiG9w0BAQEFAAOCAQ8AMIIBCgKCAQEA0WzPDbproZfVvPStCJcSOwIgeVJv
5RzHYlVUUMoV7w6E6Ya65S8GfNaXCWKPqT6vb6XEVdVrFJi6D5b6LgvTfnD+/JVn
cLae/PNLhD4E1GWHDOybinFlvuLy/olOmwfxQd5JjRAvgoOwAte1X48i6n6Y3CpA
7wuHl0fpN0mjjSBHWpC3U9pXHM51LDYvVLQLEOIQkv2Hh7/trjg4WfCSaKhLy4b2
9/jNk+0ifPmPmYNqzr7xGqGAeQxjjyaH7DoFxtpQ3iWH0ymrl+d6bNCwFkqpBvYk
Q7q85t44+VI3EBEgyVR6ArXAq8y2ZHNAAeekO4avlKB6mBnZzb88IG5uGwIDAQAB
o4G+MIG7MAkGA1UdEwQCMAAwCwYDVR0PBAQDAgXgMBMGA1UdJQQMMAoGCCsGAQUF
BwMCMDYGA1UdHwQvMC0wK6ApoCeGJWh0dHA6Ly93d3cuZXhhbXBsZS5jb20vZXhh
bXBsZV9jYS5jcmwwNwYIKwYBBQUHAQEEKzApMCcGCCsGAQUFBzABhhtodHRwOi8v
d3d3LmV4YW1wbGUub3JnL29jc3AwGwYDVR0RBBQwEoEQdXNlckBleGFtcGxlLm9y
ZzANBgkqhkiG9w0BAQsFAAOCAQEAGRvfay97YWulhEXjR+wCbDO4Z5l4URzz56Fw
Zx6pT7v1tqP1xJbkCKhoBZ0fuT0rPZJdmSQ73ProcXFcUOp9kqGloMcga8OtTSf+
7oUOK9DobmVD+iw85ZJBVY6kIleGwC61IsRicwMlQvyKkRdiSGnFyERwkHZX/u9n
5XpwC65yDz+yVMmCFkkAMdAa2z57cSz18uL1zxQiU+DFpCPgIRvKEfHz0Ppm7rSI
TdkiOF0lzGHQD8FYCIVoYVOHDv6jCd9axVy1cFF5WRSNZL9UrknFHu2linkYGHpZ
9DbPWGY5XLyMvbpzWujk7szxEglXKZXahDXhdZbjgDQ/rycofw==
-----END CERTIFICATE-----
