Certificate:
    Data:
        Version: 3 (0x2)
        Serial Number: 3 (0x3)
        Signature Algorithm: sha256WithRSAEncryption
        Issuer: C=FR, ST=Radius, L=Somewhere, O=Example Inc/emailAddress=admin@example.org, CN=Example Certificate Authority
        Validity
            Not Before: May 30 15:47:49 2022 GMT
            Not After : May 30 15:47:49 2023 GMT
        Subject: C=FR, ST=Radius, O=Example Inc, CN=Example user/emailAddress=user.example@example.org
        Subject Public Key Info:
            Public Key Algorithm: rsaEncryption
                Public-Key: (2048 bit)
                Modulus:
                    00:b6:12:4d:cd:bd:05:a1:94:b6:e8:19:fe:80:19:
                    d3:a8:34:b0:42:09:c4:6a:5a:2c:89:f1:94:3d:00:
                    fd:e2:f6:54:7d:8c:a3:0b:ee:34:20:0a:77:3c:cf:
                    d8:48:31:84:16:ac:ad:54:a7:46:4c:8f:fe:97:dd:
                    b6:a9:85:ea:2b:b0:07:e9:76:ec:94:ad:ae:d3:b4:
                    87:94:8d:0e:5a:2a:6d:50:02:38:03:71:41:f0:52:
                    0f:8a:e2:88:45:5c:65:3e:99:8f:e8:0e:46:67:7b:
                    d7:2d:83:78:d7:27:3b:c2:ac:55:52:69:a6:55:c6:
                    d1:43:25:83:fc:9c:45:2f:81:40:e2:56:a5:0a:94:
                    da:cc:18:7b:29:ea:d0:a4:79:82:86:2f:27:d2:26:
                    2e:4a:0b:ee:59:2b:39:63:ba:85:d8:32:ef:88:41:
                    93:fa:a4:a7:01:5b:73:52:34:ed:c6:bb:10:96:02:
                    41:9c:25:18:50:0e:24:e0:6a:ed:be:82:78:b1:ac:
                    d6:97:d5:56:15:77:dd:18:1b:54:15:a4:66:12:2e:
                    dc:a6:f6:0b:54:e0:a8:22:94:eb:dc:ad:3e:de:35:
                    00:f8:56:d3:fa:fb:77:c8:79:f3:b5:44:7b:92:4d:
                    73:aa:1b:c1:51:a3:f8:a7:05:83:7f:ed:32:1f:87:
                    76:79
                Exponent: 65537 (0x10001)
        X509v3 extensions:
            X509v3 Basic Constraints: 
                CA:FALSE
            X509v3 Key Usage: 
                Digital Signature, Non Repudiation, Key Encipherment
            X509v3 Extended Key Usage: 
                TLS Web Client Authentication
            X509v3 CRL Distribution Points: 
                Full Name:
                  URI:http://www.example.com/example_ca.crl
            Authority Information Access: 
                OCSP - URI:http://www.example.org/ocsp
            X509v3 Subject Alternative Name: 
                email:user@example.org
            X509v3 Subject Key Identifier: 
                01:69:49:CF:D8:AD:51:A3:15:A7:5D:AE:C8:3A:50:47:0A:A0:C5:BF
            X509v3 Authority Key Identifier: 
                1D:04:C7:8A:D5:15:0C:5C:33:93:99:C8:51:42:59:6B:87:3D:9B:C0
    Signature Algorithm: sha256WithRSAEncryption
    Signature Value:
        0d:9c:fd:91:76:34:aa:71:4c:13:f1:1f:33:d6:26:2a:a8:2c:
        f0:73:73:20:36:1e:9b:4a:01:e7:fd:49:a6:fc:bf:3b:ae:8f:
        fe:3f:a5:4c:a5:d9:f7:ca:2f:f1:b6:11:c3:69:e7:91:da:d1:
        c3:42:c2:31:15:06:b2:99:72:64:c4:7b:5a:ad:27:f5:39:e2:
        df:e0:f2:83:d2:ed:cb:92:91:97:bf:c4:03:c4:1e:ef:d9:47:
        f9:5c:f3:5e:8b:ad:25:15:41:fe:ee:d8:03:12:65:86:4e:03:
        ca:15:25:58:04:33:dd:59:c4:00:43:66:e2:74:22:46:53:0b:
        87:e7:cf:1a:e5:90:57:c2:60:bb:be:9d:cd:31:ba:2a:b3:01:
        c7:52:a3:30:72:2d:6d:42:dd:30:5f:bb:47:c3:ea:5b:3e:6f:
        7b:b9:79:ea:66:cf:3d:48:b6:91:7e:cc:41:99:11:87:c1:23:
        0a:7a:b9:d4:9b:6b:4f:fc:b8:e6:80:71:1d:26:1c:11:f1:2f:
        43:f8:1c:92:4a:bb:54:0e:d1:65:f4:e3:f4:3f:e5:1a:5c:2a:
        88:2f:dd:f5:e7:eb:ca:2b:52:14:37:59:b6:03:47:cb:9b:dc:
        84:b6:4a:74:f0:a3:64:12:eb:47:1e:cc:7e:64:3a:da:2d:cf:
        04:65:38:4b
-----BEGIN CERTIFICATE-----
MIIEgTCCA2mgAwIBAgIBAzANBgkqhkiG9w0BAQsFADCBkjELMAkGA1UEBhMCRlIx
DzANBgNVBAgMBlJhZGl1czESMBAGA1UEBwwJU29tZXdoZXJlMRQwEgYDVQQKDAtF
eGFtcGxlIEluYzEgMB4GCSqGSIb3DQEJARYRYWRtaW5AZXhhbXBsZS5vcmcxJjAk
BgNVBAMMHUV4YW1wbGUgQ2VydGlmaWNhdGUgQXV0aG9yaXR5MB4XDTIyMDUzMDE1
NDc0OVoXDTIzMDUzMDE1NDc0OVowdDELMAkGA1UEBhMCRlIxDzANBgNVBAgMBlJh
ZGl1czEUMBIGA1UECgwLRXhhbXBsZSBJbmMxFTATBgNVBAMMDEV4YW1wbGUgdXNl
cjEnMCUGCSqGSIb3DQEJARYYdXNlci5leGFtcGxlQGV4YW1wbGUub3JnMIIBIjAN
BgkqhkiG9w0BAQEFAAOCAQ8AMIIBCgKCAQEAthJNzb0FoZS26Bn+gBnTqDSwQgnE
alosifGUPQD94vZUfYyjC+40IAp3PM/YSDGEFqytVKdGTI/+l922qYXqK7AH6Xbs
lK2u07SHlI0OWiptUAI4A3FB8FIPiuKIRVxlPpmP6A5GZ3vXLYN41yc7wqxVUmmm
VcbRQyWD/JxFL4FA4lalCpTazBh7KerQpHmChi8n0iYuSgvuWSs5Y7qF2DLviEGT
+qSnAVtzUjTtxrsQlgJBnCUYUA4k4GrtvoJ4sazWl9VWFXfdGBtUFaRmEi7cpvYL
VOCoIpTr3K0+3jUA+FbT+vt3yHnztUR7kk1zqhvBUaP4pwWDf+0yH4d2eQIDAQAB
o4H+MIH7MAkGA1UdEwQCMAAwCwYDVR0PBAQDAgXgMBMGA1UdJQQMMAoGCCsGAQUF
BwMCMDYGA1UdHwQvMC0wK6ApoCeGJWh0dHA6Ly93d3cuZXhhbXBsZS5jb20vZXhh
bXBsZV9jYS5jcmwwNwYIKwYBBQUHAQEEKzApMCcGCCsGAQUFBzABhhtodHRwOi8v
d3d3LmV4YW1wbGUub3JnL29jc3AwGwYDVR0RBBQwEoEQdXNlckBleGFtcGxlLm9y
ZzAdBgNVHQ4EFgQUAWlJz9itUaMVp12uyDpQRwqgxb8wHwYDVR0jBBgwFoAUHQTH
itUVDFwzk5nIUUJZa4c9m8AwDQYJKoZIhvcNAQELBQADggEBAA2c/ZF2NKpxTBPx
HzPWJiqoLPBzcyA2HptKAef9Sab8vzuuj/4/pUyl2ffKL/G2EcNp55Ha0cNCwjEV
BrKZcmTEe1qtJ/U54t/g8oPS7cuSkZe/xAPEHu/ZR/lc816LrSUVQf7u2AMSZYZO
A8oVJVgEM91ZxABDZuJ0IkZTC4fnzxrlkFfCYLu+nc0xuiqzAcdSozByLW1C3TBf
u0fD6ls+b3u5eepmzz1ItpF+zEGZEYfBIwp6udSba0/8uOaAcR0mHBHxL0P4HJJK
u1QO0WX04/Q/5RpcKogv3fXn68orUhQ3WbYDR8ub3IS2SnTwo2QS60cezH5kOtot
zwRlOEs=
-----END CERTIFICATE-----
