Certificate:
    Data:
        Version: 3 (0x2)
        Serial Number: 3 (0x3)
        Signature Algorithm: sha256WithRSAEncryption
        Issuer: C=FR, ST=Radius, L=Somewhere, O=Example Inc/emailAddress=admin@example.org, CN=Example Certificate Authority
        Validity
            Not Before: Mar 25 14:12:33 2020 GMT
            Not After : Mar 25 14:12:33 2021 GMT
        Subject: C=FR, ST=Radius, O=Example Inc, CN=Example user/emailAddress=user.example@example.org
        Subject Public Key Info:
            Public Key Algorithm: rsaEncryption
                RSA Public-Key: (2048 bit)
                Modulus:
                    00:9d:f0:12:e1:ec:ac:ec:89:ce:22:f2:80:dd:de:
                    b3:81:c0:39:a4:f4:1d:07:c8:5f:52:2f:15:37:d7:
                    f6:6d:95:ce:b1:86:d7:f6:6b:d1:04:13:b7:5e:82:
                    7e:7a:3c:0d:25:7e:ba:1f:3f:bc:7d:4c:3e:bd:c2:
                    33:59:80:e2:a6:4c:40:ad:aa:f9:e0:6f:6c:d3:a4:
                    a5:4f:ce:b2:46:26:24:a8:85:65:c7:0e:23:29:ab:
                    08:70:f7:7c:c6:57:49:9e:9d:93:b8:7d:f7:18:69:
                    4d:1c:0e:6a:ff:a2:f5:6e:01:64:b2:af:d4:de:1c:
                    9a:b1:1d:25:2d:d8:c7:b5:0b:0d:bd:2f:fa:71:19:
                    f9:b7:8b:b3:f4:75:07:cb:b0:95:24:7f:74:79:24:
                    3b:2c:dc:d6:4c:78:8f:b7:ed:2e:a6:9e:61:8f:fb:
                    4d:e5:be:29:d6:1d:e3:11:c3:b5:7e:2e:5b:a5:e1:
                    22:28:3b:87:d7:ec:87:b0:83:34:89:b9:f4:10:bc:
                    3f:5d:e5:77:80:3a:ce:9e:11:5e:d5:b0:d0:05:00:
                    22:81:dd:7b:ec:44:94:c0:71:a2:d7:53:ab:3e:04:
                    a2:f9:69:b9:52:14:6a:c7:d9:03:8f:45:21:bc:df:
                    f1:13:69:d0:bb:c0:28:5a:dc:97:fe:9e:fe:76:c8:
                    17:1d
                Exponent: 65537 (0x10001)
        X509v3 extensions:
            X509v3 Basic Constraints: 
                CA:FALSE
            X509v3 Key Usage: 
                Digital Signature, Non Repudiation, Key Encipherment
            X509v3 Extended Key Usage: 
                TLS Web Client Authentication
            X509v3 CRL Distribution Points: 

                Full Name:
                  URI:http://www.example.com/example_ca.crl

            Authority Information Access: 
                OCSP - URI:http://www.example.org/ocsp

            X509v3 Subject Alternative Name: 
                email:user@example.org
    Signature Algorithm: sha256WithRSAEncryption
         04:2f:a1:c9:37:84:0a:c2:98:c4:50:3d:4e:65:d5:47:7c:41:
         5b:2f:ce:d2:09:4c:14:94:f0:38:b7:cb:3b:3f:c9:7b:5d:f4:
         62:b5:d3:bc:ad:8e:b1:e3:f7:23:33:b8:3f:e9:c9:b9:8d:ec:
         3d:8d:b4:2d:09:54:7f:a0:87:6a:4b:e9:30:fe:81:ab:48:ce:
         f0:9e:d6:4e:0f:b4:ab:75:f4:24:e4:5d:1b:dd:cf:e0:8d:29:
         59:93:5a:7d:fc:44:e6:0f:83:55:cf:1d:5f:a1:25:f0:e3:c8:
         ef:77:f3:fc:06:eb:e4:13:8c:97:3a:6d:ad:55:92:21:9c:95:
         c7:9d:db:dc:97:84:02:cb:ee:2d:55:17:a2:5f:6d:38:d8:9d:
         1b:6c:16:8a:65:96:41:78:1c:8a:20:b3:df:1a:ad:3a:52:6a:
         25:8d:07:b6:31:d2:9d:42:18:da:92:64:39:c9:83:84:87:21:
         58:ec:39:dd:3c:19:3f:44:eb:f7:d5:49:7e:a0:8a:09:42:8e:
         75:58:2a:f1:6e:77:b7:03:45:e0:58:d9:bf:40:e2:aa:0f:e7:
         1f:cc:f9:ba:88:e5:49:89:8f:83:6a:82:19:7a:95:5d:bc:13:
         38:f0:b7:26:cf:a3:77:5d:c0:f5:0a:34:65:d4:2c:42:7b:50:
         3c:e2:83:87
-----BEGIN CERTIFICATE-----
MIIEQTCCAymgAwIBAgIBAzANBgkqhkiG9w0BAQsFADCBkjELMAkGA1UEBhMCRlIx
DzANBgNVBAgMBlJhZGl1czESMBAGA1UEBwwJU29tZXdoZXJlMRQwEgYDVQQKDAtF
eGFtcGxlIEluYzEgMB4GCSqGSIb3DQEJARYRYWRtaW5AZXhhbXBsZS5vcmcxJjAk
BgNVBAMMHUV4YW1wbGUgQ2VydGlmaWNhdGUgQXV0aG9yaXR5MB4XDTIwMDMyNTE0
MTIzM1oXDTIxMDMyNTE0MTIzM1owdDELMAkGA1UEBhMCRlIxDzANBgNVBAgMBlJh
ZGl1czEUMBIGA1UECgwLRXhhbXBsZSBJbmMxFTATBgNVBAMMDEV4YW1wbGUgdXNl
cjEnMCUGCSqGSIb3DQEJARYYdXNlci5leGFtcGxlQGV4YW1wbGUub3JnMIIBIjAN
BgkqhkiG9w0BAQEFAAOCAQ8AMIIBCgKCAQEAnfAS4eys7InOIvKA3d6zgcA5pPQd
B8hfUi8VN9f2bZXOsYbX9mvRBBO3XoJ+ejwNJX66Hz+8fUw+vcIzWYDipkxArar5
4G9s06SlT86yRiYkqIVlxw4jKasIcPd8xldJnp2TuH33GGlNHA5q/6L1bgFksq/U
3hyasR0lLdjHtQsNvS/6cRn5t4uz9HUHy7CVJH90eSQ7LNzWTHiPt+0upp5hj/tN
5b4p1h3jEcO1fi5bpeEiKDuH1+yHsIM0ibn0ELw/XeV3gDrOnhFe1bDQBQAigd17
7ESUwHGi11OrPgSi+Wm5UhRqx9kDj0UhvN/xE2nQu8AoWtyX/p7+dsgXHQIDAQAB
o4G+MIG7MAkGA1UdEwQCMAAwCwYDVR0PBAQDAgXgMBMGA1UdJQQMMAoGCCsGAQUF
BwMCMDYGA1UdHwQvMC0wK6ApoCeGJWh0dHA6Ly93d3cuZXhhbXBsZS5jb20vZXhh
bXBsZV9jYS5jcmwwNwYIKwYBBQUHAQEEKzApMCcGCCsGAQUFBzABhhtodHRwOi8v
d3d3LmV4YW1wbGUub3JnL29jc3AwGwYDVR0RBBQwEoEQdXNlckBleGFtcGxlLm9y
ZzANBgkqhkiG9w0BAQsFAAOCAQEABC+hyTeECsKYxFA9TmXVR3xBWy/O0glMFJTw
OLfLOz/Je130YrXTvK2OseP3IzO4P+nJuY3sPY20LQlUf6CHakvpMP6Bq0jO8J7W
Tg+0q3X0JORdG93P4I0pWZNaffxE5g+DVc8dX6El8OPI73fz/Abr5BOMlzptrVWS
IZyVx53b3JeEAsvuLVUXol9tONidG2wWimWWQXgciiCz3xqtOlJqJY0HtjHSnUIY
2pJkOcmDhIchWOw53TwZP0Tr99VJfqCKCUKOdVgq8W53twNF4FjZv0Diqg/nH8z5
uojlSYmPg2qCGXqVXbwTOPC3Js+jd13A9Qo0ZdQsQntQPOKDhw==
-----END CERTIFICATE-----
