Certificate:
    Data:
        Version: 3 (0x2)
        Serial Number: 3 (0x3)
        Signature Algorithm: sha256WithRSAEncryption
        Issuer: C=FR, ST=Radius, L=Somewhere, O=Example Inc/emailAddress=admin@example.org, CN=Example Certificate Authority
        Validity
            Not Before: May 26 15:40:51 2021 GMT
            Not After : May 26 15:40:51 2022 GMT
        Subject: C=FR, ST=Radius, O=Example Inc, CN=Example user/emailAddress=user.example@example.org
        Subject Public Key Info:
            Public Key Algorithm: rsaEncryption
                RSA Public-Key: (2048 bit)
                Modulus:
                    00:e0:64:84:db:9d:0a:22:76:cf:d1:ca:2f:ee:83:
                    4c:52:22:a3:da:f4:90:8e:0d:7f:8a:0e:05:85:b5:
                    8f:c6:e3:ac:35:36:d0:76:49:c0:b9:1c:6d:ed:1f:
                    54:0d:27:7a:9b:b3:08:ba:97:c1:81:9b:43:31:b9:
                    92:ca:82:d6:89:51:32:2d:2e:08:5e:a3:40:8f:45:
                    19:22:b2:e9:59:7c:d1:1a:06:c3:97:0e:2e:22:f7:
                    0f:ec:cd:18:9f:98:be:29:a4:a6:07:d8:0a:09:00:
                    dc:0e:c7:fd:9f:da:37:0a:1f:dc:7b:e4:ad:ab:77:
                    e9:3b:43:8e:23:aa:37:fe:9d:07:25:0d:e3:46:ed:
                    40:b3:5f:86:7f:36:fa:5e:5f:7e:f2:31:c4:6d:1d:
                    8e:d4:48:b3:1a:f5:6b:8c:34:57:79:a4:65:47:1a:
                    14:08:c0:e8:cc:b5:0d:4b:01:e6:a6:c6:8f:d6:99:
                    c6:b5:6d:1f:fe:b0:0d:cb:c5:aa:b6:6a:52:63:63:
                    fd:27:02:72:af:7f:45:c7:1e:e8:90:77:91:1b:06:
                    6f:dd:20:80:88:4c:0b:5e:64:18:10:21:bc:94:62:
                    72:ed:21:6d:37:31:9b:6e:a5:f8:b0:20:5d:79:10:
                    c0:32:1b:62:b4:f0:c1:d8:e6:48:1e:ac:fc:3d:bf:
                    a3:c9
                Exponent: 65537 (0x10001)
        X509v3 extensions:
            X509v3 Basic Constraints: 
                CA:FALSE
            X509v3 Key Usage: 
                Digital Signature, Non Repudiation, Key Encipherment
            X509v3 Extended Key Usage: 
                TLS Web Client Authentication
            X509v3 CRL Distribution Points: 

                Full Name:
                  URI:http://www.example.com/example_ca.crl

            Authority Information Access: 
                OCSP - URI:http://www.example.org/ocsp

            X509v3 Subject Alternative Name: 
                email:user@example.org
    Signature Algorithm: sha256WithRSAEncryption
         1e:3b:cc:a0:28:9f:a2:f8:f9:69:64:83:50:7c:b1:0a:1d:0f:
         16:3b:ab:c5:d6:cd:2f:30:8e:d6:4a:71:24:bc:73:11:71:9d:
         ab:44:c8:86:ca:57:16:11:62:bf:9e:1f:0b:54:77:87:ba:71:
         3a:ad:b1:5b:7a:c1:40:58:f7:cf:65:aa:2f:8e:2f:43:18:c1:
         3d:cb:38:cf:d6:02:66:0a:2f:3d:e1:d5:6f:0c:a1:d2:8c:5d:
         4a:7d:ed:72:57:72:d4:57:ea:5a:e7:23:f4:b4:99:ef:2a:54:
         66:51:54:78:a4:78:5d:c3:6b:d4:bf:a4:97:07:10:21:79:8b:
         4f:bd:ea:79:2c:7a:d7:45:3e:28:d4:3a:9f:1c:8f:30:27:fd:
         c0:4e:43:eb:1c:4c:8f:a6:2d:80:d7:5a:2e:96:cd:41:31:4a:
         1a:4e:56:27:45:a2:d1:61:d7:80:df:80:9f:d6:93:6b:62:3d:
         65:58:7e:60:34:d7:0f:80:28:6f:32:1e:17:ca:f5:de:1d:60:
         2f:41:1e:5b:31:3e:c0:d2:7f:ee:92:df:0b:70:15:24:59:7e:
         5b:5e:b0:d1:68:22:b3:20:ca:de:c9:d7:dd:63:e5:48:57:c9:
         28:71:34:0e:9b:24:e2:c1:54:9d:65:b5:e6:86:63:06:55:1d:
         d2:97:59:f4
-----BEGIN CERTIFICATE-----
MIIEQTCCAymgAwIBAgIBAzANBgkqhkiG9w0BAQsFADCBkjELMAkGA1UEBhMCRlIx
DzANBgNVBAgMBlJhZGl1czESMBAGA1UEBwwJU29tZXdoZXJlMRQwEgYDVQQKDAtF
eGFtcGxlIEluYzEgMB4GCSqGSIb3DQEJARYRYWRtaW5AZXhhbXBsZS5vcmcxJjAk
BgNVBAMMHUV4YW1wbGUgQ2VydGlmaWNhdGUgQXV0aG9yaXR5MB4XDTIxMDUyNjE1
NDA1MVoXDTIyMDUyNjE1NDA1MVowdDELMAkGA1UEBhMCRlIxDzANBgNVBAgMBlJh
ZGl1czEUMBIGA1UECgwLRXhhbXBsZSBJbmMxFTATBgNVBAMMDEV4YW1wbGUgdXNl
cjEnMCUGCSqGSIb3DQEJARYYdXNlci5leGFtcGxlQGV4YW1wbGUub3JnMIIBIjAN
BgkqhkiG9w0BAQEFAAOCAQ8AMIIBCgKCAQEA4GSE250KInbP0cov7oNMUiKj2vSQ
jg1/ig4FhbWPxuOsNTbQdknAuRxt7R9UDSd6m7MIupfBgZtDMbmSyoLWiVEyLS4I
XqNAj0UZIrLpWXzRGgbDlw4uIvcP7M0Yn5i+KaSmB9gKCQDcDsf9n9o3Ch/ce+St
q3fpO0OOI6o3/p0HJQ3jRu1As1+Gfzb6Xl9+8jHEbR2O1EizGvVrjDRXeaRlRxoU
CMDozLUNSwHmpsaP1pnGtW0f/rANy8WqtmpSY2P9JwJyr39Fxx7okHeRGwZv3SCA
iEwLXmQYECG8lGJy7SFtNzGbbqX4sCBdeRDAMhtitPDB2OZIHqz8Pb+jyQIDAQAB
o4G+MIG7MAkGA1UdEwQCMAAwCwYDVR0PBAQDAgXgMBMGA1UdJQQMMAoGCCsGAQUF
BwMCMDYGA1UdHwQvMC0wK6ApoCeGJWh0dHA6Ly93d3cuZXhhbXBsZS5jb20vZXhh
bXBsZV9jYS5jcmwwNwYIKwYBBQUHAQEEKzApMCcGCCsGAQUFBzABhhtodHRwOi8v
d3d3LmV4YW1wbGUub3JnL29jc3AwGwYDVR0RBBQwEoEQdXNlckBleGFtcGxlLm9y
ZzANBgkqhkiG9w0BAQsFAAOCAQEAHjvMoCifovj5aWSDUHyxCh0PFjurxdbNLzCO
1kpxJLxzEXGdq0TIhspXFhFiv54fC1R3h7pxOq2xW3rBQFj3z2WqL44vQxjBPcs4
z9YCZgovPeHVbwyh0oxdSn3tcldy1FfqWucj9LSZ7ypUZlFUeKR4XcNr1L+klwcQ
IXmLT73qeSx610U+KNQ6nxyPMCf9wE5D6xxMj6YtgNdaLpbNQTFKGk5WJ0Wi0WHX
gN+An9aTa2I9ZVh+YDTXD4AobzIeF8r13h1gL0EeWzE+wNJ/7pLfC3AVJFl+W16w
0WgisyDK3snX3WPlSFfJKHE0Dpsk4sFUnWW15oZjBlUd0pdZ9A==
-----END CERTIFICATE-----
