Certificate:
    Data:
        Version: 3 (0x2)
        Serial Number: 3 (0x3)
    Signature Algorithm: sha256WithRSAEncryption
        Issuer: C=FR, ST=Radius, L=Somewhere, O=Example Inc/emailAddress=admin@example.org, CN=Example Certificate Authority
        Validity
            Not Before: Mar 25 19:12:36 2021 GMT
            Not After : May 24 19:12:36 2021 GMT
        Subject: C=FR, ST=Radius, O=Example Inc, CN=Example user/emailAddress=user.example@example.org
        Subject Public Key Info:
            Public Key Algorithm: rsaEncryption
                Public-Key: (2048 bit)
                Modulus:
                    00:ce:0e:93:03:1e:8a:0c:fa:30:26:50:1b:27:56:
                    78:24:e3:e9:1e:64:8c:99:10:e0:fe:3b:30:ba:01:
                    41:01:b4:29:70:92:24:02:66:11:ec:c8:5c:be:33:
                    61:62:89:b3:58:f8:6f:0b:1b:00:fa:e7:62:1c:14:
                    86:11:cd:90:39:a2:4a:38:db:02:91:35:5f:48:80:
                    49:bb:83:2e:53:95:b3:38:8a:f7:39:cb:6b:05:94:
                    69:5b:65:14:45:3d:93:15:c9:80:9f:fb:ab:4c:83:
                    9b:d4:46:7c:b5:8f:55:c0:4a:79:02:80:eb:f5:60:
                    91:27:7e:b2:56:2c:50:e7:f2:06:0b:16:39:d4:7d:
                    ba:0a:64:86:57:fd:9e:e1:e6:b9:c4:78:4b:c9:c8:
                    1f:3a:b4:61:7d:ee:3a:2a:7b:bb:15:66:e2:d6:d8:
                    dd:52:cf:5f:23:23:66:99:af:91:87:ef:1d:35:48:
                    bf:64:a3:be:62:a5:b8:6d:1e:e8:ed:d2:93:93:4e:
                    54:0a:87:3b:34:13:a3:60:db:1b:e6:24:2d:e1:6b:
                    7b:84:7c:e0:d3:dd:a6:17:f2:dc:c8:8a:55:bd:c7:
                    51:f2:36:c6:46:50:55:fa:15:82:b0:c0:c2:56:5e:
                    26:b0:bb:6b:74:42:0f:13:91:8d:d6:ab:a2:c7:4d:
                    6e:e5
                Exponent: 65537 (0x10001)
        X509v3 extensions:
            X509v3 Basic Constraints: 
                CA:FALSE
            X509v3 Key Usage: 
                Digital Signature, Non Repudiation, Key Encipherment
            X509v3 Extended Key Usage: 
                TLS Web Client Authentication
            X509v3 CRL Distribution Points: 

                Full Name:
                  URI:http://www.example.com/example_ca.crl

            Authority Information Access: 
                OCSP - URI:http://www.example.org/ocsp

            X509v3 Subject Alternative Name: 
                email:user@example.org
    Signature Algorithm: sha256WithRSAEncryption
         78:9b:ac:13:ff:a4:cc:a9:cc:15:3a:fa:84:3a:7e:17:09:08:
         51:48:94:79:8f:78:71:85:c5:12:8e:e7:81:30:cf:2c:d7:df:
         98:d6:02:f9:fe:6f:00:4a:45:3d:39:c4:71:29:d3:33:44:39:
         b6:fc:59:da:cf:39:0e:a7:1b:c8:86:7a:a2:21:95:60:b9:69:
         b5:da:ed:b4:e6:2d:8f:b6:6c:30:b9:1f:33:7a:a7:24:9a:01:
         b9:95:60:2c:2f:54:f1:b6:31:8a:a1:7b:36:d8:cf:51:b7:d5:
         6a:ac:8d:c4:de:3b:a0:48:65:61:59:a6:7e:25:96:ac:f4:e5:
         75:62:40:87:0a:c2:59:13:aa:59:e2:47:b2:9f:88:eb:7b:70:
         ab:00:e6:dd:41:e1:c9:de:42:8a:bc:53:6f:8b:3d:77:ca:6b:
         02:92:68:65:09:69:12:56:fc:91:b6:52:03:cf:b0:87:75:97:
         31:d1:e4:6d:a2:64:7a:23:eb:6c:48:b7:ab:14:ee:4b:4c:4f:
         9a:60:49:7a:72:be:f8:fc:4f:78:43:98:cd:fc:b7:2c:d0:36:
         6a:bc:56:e2:da:02:53:0d:47:40:fe:d3:7b:66:27:49:47:31:
         3a:c4:d4:d0:08:63:56:65:46:07:72:a1:40:18:d3:5c:a9:20:
         40:3c:29:aa
-----BEGIN CERTIFICATE-----
MIIEQTCCAymgAwIBAgIBAzANBgkqhkiG9w0BAQsFADCBkjELMAkGA1UEBhMCRlIx
DzANBgNVBAgMBlJhZGl1czESMBAGA1UEBwwJU29tZXdoZXJlMRQwEgYDVQQKDAtF
eGFtcGxlIEluYzEgMB4GCSqGSIb3DQEJARYRYWRtaW5AZXhhbXBsZS5vcmcxJjAk
BgNVBAMMHUV4YW1wbGUgQ2VydGlmaWNhdGUgQXV0aG9yaXR5MB4XDTIxMDMyNTE5
MTIzNloXDTIxMDUyNDE5MTIzNlowdDELMAkGA1UEBhMCRlIxDzANBgNVBAgMBlJh
ZGl1czEUMBIGA1UECgwLRXhhbXBsZSBJbmMxFTATBgNVBAMMDEV4YW1wbGUgdXNl
cjEnMCUGCSqGSIb3DQEJARYYdXNlci5leGFtcGxlQGV4YW1wbGUub3JnMIIBIjAN
BgkqhkiG9w0BAQEFAAOCAQ8AMIIBCgKCAQEAzg6TAx6KDPowJlAbJ1Z4JOPpHmSM
mRDg/jswugFBAbQpcJIkAmYR7MhcvjNhYomzWPhvCxsA+udiHBSGEc2QOaJKONsC
kTVfSIBJu4MuU5WzOIr3OctrBZRpW2UURT2TFcmAn/urTIOb1EZ8tY9VwEp5AoDr
9WCRJ36yVixQ5/IGCxY51H26CmSGV/2e4ea5xHhLycgfOrRhfe46Knu7FWbi1tjd
Us9fIyNmma+Rh+8dNUi/ZKO+YqW4bR7o7dKTk05UCoc7NBOjYNsb5iQt4Wt7hHzg
092mF/LcyIpVvcdR8jbGRlBV+hWCsMDCVl4msLtrdEIPE5GN1quix01u5QIDAQAB
o4G+MIG7MAkGA1UdEwQCMAAwCwYDVR0PBAQDAgXgMBMGA1UdJQQMMAoGCCsGAQUF
BwMCMDYGA1UdHwQvMC0wK6ApoCeGJWh0dHA6Ly93d3cuZXhhbXBsZS5jb20vZXhh
bXBsZV9jYS5jcmwwNwYIKwYBBQUHAQEEKzApMCcGCCsGAQUFBzABhhtodHRwOi8v
d3d3LmV4YW1wbGUub3JnL29jc3AwGwYDVR0RBBQwEoEQdXNlckBleGFtcGxlLm9y
ZzANBgkqhkiG9w0BAQsFAAOCAQEAeJusE/+kzKnMFTr6hDp+FwkIUUiUeY94cYXF
Eo7ngTDPLNffmNYC+f5vAEpFPTnEcSnTM0Q5tvxZ2s85DqcbyIZ6oiGVYLlptdrt
tOYtj7ZsMLkfM3qnJJoBuZVgLC9U8bYxiqF7NtjPUbfVaqyNxN47oEhlYVmmfiWW
rPTldWJAhwrCWROqWeJHsp+I63twqwDm3UHhyd5CirxTb4s9d8prApJoZQlpElb8
kbZSA8+wh3WXMdHkbaJkeiPrbEi3qxTuS0xPmmBJenK++PxPeEOYzfy3LNA2arxW
4toCUw1HQP7Te2YnSUcxOsTU0AhjVmVGB3KhQBjTXKkgQDwpqg==
-----END CERTIFICATE-----
