Certificate:
    Data:
        Version: 3 (0x2)
        Serial Number: 5 (0x5)
        Signature Algorithm: sha256WithRSAEncryption
        Issuer: C=FR, ST=Radius, L=Somewhere, O=Example Inc/emailAddress=admin@example.org, CN=Example Certificate Authority
        Validity
            Not Before: May 26 15:40:51 2021 GMT
            Not After : May 26 15:40:51 2022 GMT
        Subject: C=FR, ST=Radius, O=Example Inc, CN=Example OCSP Responder Certificate/emailAddress=admin@example.org
        Subject Public Key Info:
            Public Key Algorithm: rsaEncryption
                RSA Public-Key: (2048 bit)
                Modulus:
                    00:f9:f1:fd:16:d6:b5:da:96:82:b6:42:be:92:30:
                    86:d4:c0:61:48:8c:93:e6:a5:93:15:ae:b8:f1:e9:
                    9a:14:69:f4:6b:00:99:6b:62:b3:ff:f5:cc:db:1b:
                    5c:7c:97:80:c6:59:87:8b:e5:cd:6c:25:a9:a3:22:
                    db:58:63:52:81:5f:82:c0:c5:fb:0b:b6:42:c1:05:
                    78:b8:8b:bb:3b:87:c0:e3:2b:92:42:47:82:81:27:
                    a1:d2:08:84:e1:46:eb:ab:02:3a:46:54:54:16:21:
                    37:e7:b3:ec:ba:39:3c:69:ff:c2:99:5e:b3:fd:b0:
                    49:f6:10:5f:d4:7f:54:0e:6f:6b:e4:ef:3c:14:13:
                    ce:b2:af:51:27:72:8e:c0:6f:3b:07:94:f4:82:b8:
                    9a:4e:66:35:bd:42:27:ca:97:24:5e:35:0e:5b:a8:
                    b5:f9:65:f4:1f:8a:53:4f:95:a7:bc:88:a0:0b:a4:
                    39:74:ed:ab:99:e2:84:e8:e6:67:e0:22:14:7b:b1:
                    83:f6:ce:15:e6:ea:63:62:f4:82:51:06:18:6d:b3:
                    96:0f:a2:97:49:7e:18:44:f5:df:1a:01:61:bc:32:
                    5d:a6:36:fb:49:75:d6:2b:8a:9b:24:92:bd:f8:e3:
                    01:32:0d:63:17:5d:44:bf:61:17:33:ff:1f:6a:89:
                    2b:69
                Exponent: 65537 (0x10001)
        X509v3 extensions:
            X509v3 Basic Constraints: 
                CA:FALSE
            X509v3 Key Usage: 
                Digital Signature, Non Repudiation, Key Encipherment
            X509v3 Extended Key Usage: 
                OCSP Signing
    Signature Algorithm: sha256WithRSAEncryption
         5a:b1:aa:e2:47:df:5b:d5:b8:c9:92:89:91:dd:a9:73:36:cf:
         56:85:04:30:fe:cb:a5:5b:a6:37:a4:3e:64:f7:e5:83:59:f7:
         5a:58:89:7c:21:d7:f7:7d:93:66:24:6c:3f:2a:88:7f:f0:47:
         db:8d:df:ab:4e:69:b5:0c:5a:78:7e:d6:a0:e4:2b:0d:60:fb:
         88:87:fa:5c:d8:41:26:d5:11:3f:d7:93:92:e5:0b:4b:1a:3c:
         f6:af:3e:bc:45:09:17:b4:41:85:ca:6c:4b:b5:0d:c6:ef:57:
         ae:4a:2b:77:ba:3a:38:71:2c:02:d9:99:39:0f:f9:8a:f0:90:
         f5:ca:fb:95:70:c5:e0:4d:2c:ce:ed:9d:eb:11:a2:99:e9:25:
         7b:a8:76:e7:28:cb:75:f9:d1:68:9e:d5:8a:2f:09:9a:f7:a3:
         88:cb:f3:54:c7:66:1b:2d:6f:3b:d7:ca:64:77:5e:d0:89:8f:
         b2:1a:06:fd:d3:49:e9:1b:1f:99:fd:45:f1:74:7e:f3:0c:4e:
         be:3f:2c:13:f8:1e:a4:8c:85:5c:78:77:88:99:56:2d:63:4c:
         1e:39:14:f0:2b:70:0a:25:7e:6f:90:b2:85:be:f0:70:ce:32:
         e9:5b:cf:5e:43:e4:88:d8:7c:14:62:6a:01:f8:da:31:af:c5:
         c2:01:9f:c0
-----BEGIN CERTIFICATE-----
MIIDwTCCAqmgAwIBAgIBBTANBgkqhkiG9w0BAQsFADCBkjELMAkGA1UEBhMCRlIx
DzANBgNVBAgMBlJhZGl1czESMBAGA1UEBwwJU29tZXdoZXJlMRQwEgYDVQQKDAtF
eGFtcGxlIEluYzEgMB4GCSqGSIb3DQEJARYRYWRtaW5AZXhhbXBsZS5vcmcxJjAk
BgNVBAMMHUV4YW1wbGUgQ2VydGlmaWNhdGUgQXV0aG9yaXR5MB4XDTIxMDUyNjE1
NDA1MVoXDTIyMDUyNjE1NDA1MVowgYMxCzAJBgNVBAYTAkZSMQ8wDQYDVQQIDAZS
YWRpdXMxFDASBgNVBAoMC0V4YW1wbGUgSW5jMSswKQYDVQQDDCJFeGFtcGxlIE9D
U1AgUmVzcG9uZGVyIENlcnRpZmljYXRlMSAwHgYJKoZIhvcNAQkBFhFhZG1pbkBl
eGFtcGxlLm9yZzCCASIwDQYJKoZIhvcNAQEBBQADggEPADCCAQoCggEBAPnx/RbW
tdqWgrZCvpIwhtTAYUiMk+alkxWuuPHpmhRp9GsAmWtis//1zNsbXHyXgMZZh4vl
zWwlqaMi21hjUoFfgsDF+wu2QsEFeLiLuzuHwOMrkkJHgoEnodIIhOFG66sCOkZU
VBYhN+ez7Lo5PGn/wples/2wSfYQX9R/VA5va+TvPBQTzrKvUSdyjsBvOweU9IK4
mk5mNb1CJ8qXJF41Dluotfll9B+KU0+Vp7yIoAukOXTtq5nihOjmZ+AiFHuxg/bO
FebqY2L0glEGGG2zlg+il0l+GET13xoBYbwyXaY2+0l11iuKmySSvfjjATINYxdd
RL9hFzP/H2qJK2kCAwEAAaMvMC0wCQYDVR0TBAIwADALBgNVHQ8EBAMCBeAwEwYD
VR0lBAwwCgYIKwYBBQUHAwkwDQYJKoZIhvcNAQELBQADggEBAFqxquJH31vVuMmS
iZHdqXM2z1aFBDD+y6VbpjekPmT35YNZ91pYiXwh1/d9k2YkbD8qiH/wR9uN36tO
abUMWnh+1qDkKw1g+4iH+lzYQSbVET/Xk5LlC0saPPavPrxFCRe0QYXKbEu1Dcbv
V65KK3e6OjhxLALZmTkP+YrwkPXK+5VwxeBNLM7tnesRopnpJXuoducoy3X50Wie
1YovCZr3o4jL81THZhstbzvXymR3XtCJj7IaBv3TSekbH5n9RfF0fvMMTr4/LBP4
HqSMhVx4d4iZVi1jTB45FPArcAolfm+QsoW+8HDOMulbz15D5IjYfBRiagH42jGv
xcIBn8A=
-----END CERTIFICATE-----
