Certificate:
    Data:
        Version: 3 (0x2)
        Serial Number: 5 (0x5)
    Signature Algorithm: sha256WithRSAEncryption
        Issuer: C=FR, ST=Radius, L=Somewhere, O=Example Inc/emailAddress=admin@example.org, CN=Example Certificate Authority
        Validity
            Not Before: Mar 25 19:12:36 2021 GMT
            Not After : May 24 19:12:36 2021 GMT
        Subject: C=FR, ST=Radius, O=Example Inc, CN=Example OCSP Responder Certificate/emailAddress=admin@example.org
        Subject Public Key Info:
            Public Key Algorithm: rsaEncryption
                Public-Key: (2048 bit)
                Modulus:
                    00:92:22:ae:3d:f8:73:1a:06:f7:be:fd:6e:71:fc:
                    8a:17:49:61:43:98:4d:5c:87:b2:7e:a9:a9:79:58:
                    88:e7:b4:52:9f:4f:fc:2d:d3:f2:bc:28:df:5d:28:
                    79:14:ff:33:32:d5:0d:30:c3:3b:1a:5e:06:62:48:
                    aa:c2:0b:af:2c:ef:6f:a8:49:a3:05:36:cf:60:87:
                    b8:26:f8:23:dc:6e:16:e7:dc:2d:9c:a4:ae:8f:de:
                    93:91:0e:e1:00:0e:31:81:15:9d:de:11:6f:e8:6e:
                    ea:a5:a9:e5:6a:6a:c1:6f:98:66:f2:77:fe:cc:8b:
                    7b:3e:c7:77:0f:3d:f5:ab:b2:13:c9:0f:f1:96:24:
                    c1:07:2f:37:ee:e2:82:8b:01:db:15:0e:5e:b1:96:
                    89:7b:06:1d:0b:94:0e:2f:51:9d:19:2d:44:3b:f9:
                    38:3e:e4:6f:cc:f1:b0:79:d3:b4:6c:56:0f:ba:80:
                    9c:65:c1:fd:10:81:7b:ec:f7:23:27:6a:a5:92:a0:
                    ee:f0:d9:1d:0b:69:91:00:81:06:9c:f7:65:1b:ce:
                    f9:8e:59:8a:82:db:83:4f:c1:05:a4:64:69:62:bd:
                    87:ff:58:c3:d4:8c:f8:05:82:a4:38:8e:9f:3c:12:
                    c7:89:18:df:26:d4:60:c0:84:0d:a8:cf:38:e1:6b:
                    fa:f7
                Exponent: 65537 (0x10001)
        X509v3 extensions:
            X509v3 Basic Constraints: 
                CA:FALSE
            X509v3 Key Usage: 
                Digital Signature, Non Repudiation, Key Encipherment
            X509v3 Extended Key Usage: 
                OCSP Signing
    Signature Algorithm: sha256WithRSAEncryption
         39:d0:0f:31:f6:c7:4e:f0:79:67:62:94:83:5d:59:7e:78:05:
         20:57:db:f1:ef:ae:28:22:ad:a6:93:f9:56:19:b2:e4:ec:76:
         14:3f:99:a8:58:55:f4:ad:f8:ed:90:bc:34:fc:7e:88:14:83:
         75:fc:58:63:5f:f8:98:28:82:e9:5f:a4:52:78:87:21:93:50:
         02:48:5f:2a:f3:68:2a:34:14:50:4f:07:c8:a7:0b:f5:32:b8:
         76:91:fe:4c:1d:8a:90:24:42:ee:4e:93:b4:d5:99:ac:9f:d5:
         23:80:c1:54:53:38:f5:74:81:a9:00:78:e6:3f:fe:cf:fc:24:
         0c:0b:6c:29:36:97:60:d9:74:7e:c7:0f:10:60:8b:9a:2b:f0:
         f4:00:cb:84:f7:be:7a:00:4a:9a:33:d9:32:d8:f1:04:1e:83:
         4d:fb:4d:81:a1:b8:d6:73:f4:d4:cc:b6:47:b3:05:54:72:eb:
         80:1f:ce:cd:b8:a5:ec:30:11:d4:3e:d5:e1:f3:ca:03:5b:78:
         aa:d5:b1:d3:24:15:fa:20:3c:57:8f:3d:ce:dc:9b:f8:5b:36:
         da:34:35:46:d6:ad:ac:88:85:25:a3:ab:fd:3e:6c:b1:c8:9f:
         dc:85:9c:40:37:de:0b:80:3e:3e:60:6d:e4:4b:7e:14:0f:19:
         86:11:b7:68
-----BEGIN CERTIFICATE-----
MIIDwTCCAqmgAwIBAgIBBTANBgkqhkiG9w0BAQsFADCBkjELMAkGA1UEBhMCRlIx
DzANBgNVBAgMBlJhZGl1czESMBAGA1UEBwwJU29tZXdoZXJlMRQwEgYDVQQKDAtF
eGFtcGxlIEluYzEgMB4GCSqGSIb3DQEJARYRYWRtaW5AZXhhbXBsZS5vcmcxJjAk
BgNVBAMMHUV4YW1wbGUgQ2VydGlmaWNhdGUgQXV0aG9yaXR5MB4XDTIxMDMyNTE5
MTIzNloXDTIxMDUyNDE5MTIzNlowgYMxCzAJBgNVBAYTAkZSMQ8wDQYDVQQIDAZS
YWRpdXMxFDASBgNVBAoMC0V4YW1wbGUgSW5jMSswKQYDVQQDDCJFeGFtcGxlIE9D
U1AgUmVzcG9uZGVyIENlcnRpZmljYXRlMSAwHgYJKoZIhvcNAQkBFhFhZG1pbkBl
eGFtcGxlLm9yZzCCASIwDQYJKoZIhvcNAQEBBQADggEPADCCAQoCggEBAJIirj34
cxoG9779bnH8ihdJYUOYTVyHsn6pqXlYiOe0Up9P/C3T8rwo310oeRT/MzLVDTDD
OxpeBmJIqsILryzvb6hJowU2z2CHuCb4I9xuFufcLZykro/ek5EO4QAOMYEVnd4R
b+hu6qWp5WpqwW+YZvJ3/syLez7Hdw899auyE8kP8ZYkwQcvN+7igosB2xUOXrGW
iXsGHQuUDi9RnRktRDv5OD7kb8zxsHnTtGxWD7qAnGXB/RCBe+z3IydqpZKg7vDZ
HQtpkQCBBpz3ZRvO+Y5ZioLbg0/BBaRkaWK9h/9Yw9SM+AWCpDiOnzwSx4kY3ybU
YMCEDajPOOFr+vcCAwEAAaMvMC0wCQYDVR0TBAIwADALBgNVHQ8EBAMCBeAwEwYD
VR0lBAwwCgYIKwYBBQUHAwkwDQYJKoZIhvcNAQELBQADggEBADnQDzH2x07weWdi
lINdWX54BSBX2/HvrigiraaT+VYZsuTsdhQ/mahYVfSt+O2QvDT8fogUg3X8WGNf
+JgogulfpFJ4hyGTUAJIXyrzaCo0FFBPB8inC/UyuHaR/kwdipAkQu5Ok7TVmayf
1SOAwVRTOPV0gakAeOY//s/8JAwLbCk2l2DZdH7HDxBgi5or8PQAy4T3vnoASpoz
2TLY8QQeg037TYGhuNZz9NTMtkezBVRy64Afzs24pewwEdQ+1eHzygNbeKrVsdMk
FfogPFePPc7cm/hbNto0NUbWrayIhSWjq/0+bLHIn9yFnEA33guAPj5gbeRLfhQP
GYYRt2g=
-----END CERTIFICATE-----
