Certificate:
    Data:
        Version: 3 (0x2)
        Serial Number: 5 (0x5)
        Signature Algorithm: sha256WithRSAEncryption
        Issuer: C=FR, ST=Radius, L=Somewhere, O=Example Inc/emailAddress=admin@example.org, CN=Example Certificate Authority
        Validity
            Not Before: May 30 15:47:49 2022 GMT
            Not After : May 30 15:47:49 2023 GMT
        Subject: C=FR, ST=Radius, O=Example Inc, CN=Example OCSP Responder Certificate/emailAddress=admin@example.org
        Subject Public Key Info:
            Public Key Algorithm: rsaEncryption
                Public-Key: (2048 bit)
                Modulus:
                    00:b5:14:0b:d9:97:cf:ed:75:88:bd:a8:8d:10:92:
                    4d:2f:c6:8f:1c:76:06:1f:ec:8d:14:78:ac:72:74:
                    5b:eb:64:33:b5:d9:4a:fd:2a:a6:4f:28:2f:3f:53:
                    ce:09:67:86:13:3e:63:f1:dd:5f:e2:1a:9b:3b:01:
                    c9:75:b4:7b:1b:2c:ff:72:9b:63:81:48:44:1d:c7:
                    cc:91:9b:34:d2:c1:68:98:ba:d2:64:58:39:2a:cc:
                    a2:68:8d:32:df:bb:3a:bf:fd:c9:c9:8a:74:f7:15:
                    36:a1:e8:f9:a4:d0:6e:32:4f:a0:89:ec:2a:c8:e9:
                    c1:1a:83:b2:11:9b:1f:fd:b6:4a:11:59:df:67:93:
                    b0:5a:bb:1a:8e:bb:0c:e6:b2:e7:67:ae:eb:07:40:
                    af:fa:72:d3:83:7d:3a:29:3a:bd:85:b0:47:2a:d3:
                    14:71:b2:10:0c:26:50:31:97:ff:c1:61:09:40:fe:
                    7e:99:46:76:0a:2b:6d:d1:18:78:7a:f5:5b:3f:d5:
                    f0:1e:6d:0b:a7:e1:76:0b:d4:36:88:db:91:1c:54:
                    7b:7d:c0:c1:a8:bf:bf:28:fd:87:01:64:ed:c8:c3:
                    b9:ce:cb:ac:c6:f6:62:f2:40:a1:bc:74:81:9a:0d:
                    4d:a6:0a:e1:9f:7a:f1:1e:fa:40:9e:05:9b:88:2c:
                    3e:d9
                Exponent: 65537 (0x10001)
        X509v3 extensions:
            X509v3 Basic Constraints: 
                CA:FALSE
            X509v3 Key Usage: 
                Digital Signature, Non Repudiation, Key Encipherment
            X509v3 Extended Key Usage: 
                OCSP Signing
            X509v3 Subject Key Identifier: 
                B6:79:43:3F:9C:24:65:0A:4F:83:5C:05:D6:2F:FD:9A:C2:9D:BE:8C
            X509v3 Authority Key Identifier: 
                1D:04:C7:8A:D5:15:0C:5C:33:93:99:C8:51:42:59:6B:87:3D:9B:C0
    Signature Algorithm: sha256WithRSAEncryption
    Signature Value:
        7c:23:8d:7f:85:b1:2f:be:5d:45:fd:d7:43:75:a8:7c:c1:92:
        41:86:81:50:09:0e:b2:24:fa:99:0e:6e:79:52:4b:79:a9:94:
        3e:30:df:d2:de:d3:7b:0e:c5:2b:ca:21:f0:f1:93:c6:48:57:
        5d:59:60:e2:f5:56:1e:59:cc:66:a2:7b:f2:54:ed:b4:fe:a4:
        19:a5:e0:93:82:52:16:13:e5:bf:52:06:9a:c0:cc:27:71:19:
        70:95:78:98:b0:b2:d8:00:1e:1b:67:4f:bb:70:ec:66:a1:a5:
        89:65:0e:0a:2f:9b:ce:a6:ec:a0:b7:53:fb:b6:49:ba:e8:55:
        f1:75:87:fe:57:a5:67:05:e0:9c:36:10:f5:d8:53:9f:58:ce:
        c1:63:1d:40:f0:00:14:7a:ae:c3:fa:12:59:e8:2c:8e:06:ef:
        33:00:2f:51:2d:dc:e1:30:46:27:b7:a8:41:06:f3:1a:27:de:
        3d:f5:9f:40:7a:88:f5:4c:2e:b1:7f:d9:6d:6d:60:d9:ee:d2:
        71:6a:6f:4a:f9:a1:fa:c9:87:73:0b:ca:cb:80:ec:39:c1:54:
        ba:c6:d1:31:29:63:ab:ec:36:60:e7:79:a2:32:3d:c1:2d:40:
        7d:59:8e:23:9a:c4:cb:91:55:1e:03:83:a5:12:f9:ab:71:dd:
        fe:f9:df:5c
-----BEGIN CERTIFICATE-----
MIIEATCCAumgAwIBAgIBBTANBgkqhkiG9w0BAQsFADCBkjELMAkGA1UEBhMCRlIx
DzANBgNVBAgMBlJhZGl1czESMBAGA1UEBwwJU29tZXdoZXJlMRQwEgYDVQQKDAtF
eGFtcGxlIEluYzEgMB4GCSqGSIb3DQEJARYRYWRtaW5AZXhhbXBsZS5vcmcxJjAk
BgNVBAMMHUV4YW1wbGUgQ2VydGlmaWNhdGUgQXV0aG9yaXR5MB4XDTIyMDUzMDE1
NDc0OVoXDTIzMDUzMDE1NDc0OVowgYMxCzAJBgNVBAYTAkZSMQ8wDQYDVQQIDAZS
YWRpdXMxFDASBgNVBAoMC0V4YW1wbGUgSW5jMSswKQYDVQQDDCJFeGFtcGxlIE9D
U1AgUmVzcG9uZGVyIENlcnRpZmljYXRlMSAwHgYJKoZIhvcNAQkBFhFhZG1pbkBl
eGFtcGxlLm9yZzCCASIwDQYJKoZIhvcNAQEBBQADggEPADCCAQoCggEBALUUC9mX
z+11iL2ojRCSTS/Gjxx2Bh/sjRR4rHJ0W+tkM7XZSv0qpk8oLz9TzglnhhM+Y/Hd
X+IamzsByXW0exss/3KbY4FIRB3HzJGbNNLBaJi60mRYOSrMomiNMt+7Or/9ycmK
dPcVNqHo+aTQbjJPoInsKsjpwRqDshGbH/22ShFZ32eTsFq7Go67DOay52eu6wdA
r/py04N9Oik6vYWwRyrTFHGyEAwmUDGX/8FhCUD+fplGdgorbdEYeHr1Wz/V8B5t
C6fhdgvUNojbkRxUe33Awai/vyj9hwFk7cjDuc7LrMb2YvJAobx0gZoNTaYK4Z96
8R76QJ4Fm4gsPtkCAwEAAaNvMG0wCQYDVR0TBAIwADALBgNVHQ8EBAMCBeAwEwYD
VR0lBAwwCgYIKwYBBQUHAwkwHQYDVR0OBBYEFLZ5Qz+cJGUKT4NcBdYv/ZrCnb6M
MB8GA1UdIwQYMBaAFB0Ex4rVFQxcM5OZyFFCWWuHPZvAMA0GCSqGSIb3DQEBCwUA
A4IBAQB8I41/hbEvvl1F/ddDdah8wZJBhoFQCQ6yJPqZDm55Ukt5qZQ+MN/S3tN7
DsUryiHw8ZPGSFddWWDi9VYeWcxmonvyVO20/qQZpeCTglIWE+W/UgaawMwncRlw
lXiYsLLYAB4bZ0+7cOxmoaWJZQ4KL5vOpuygt1P7tkm66FXxdYf+V6VnBeCcNhD1
2FOfWM7BYx1A8AAUeq7D+hJZ6CyOBu8zAC9RLdzhMEYnt6hBBvMaJ9499Z9Aeoj1
TC6xf9ltbWDZ7tJxam9K+aH6yYdzC8rLgOw5wVS6xtExKWOr7DZg53miMj3BLUB9
WY4jmsTLkVUeA4OlEvmrcd3++d9c
-----END CERTIFICATE-----
