Certificate:
    Data:
        Version: 3 (0x2)
        Serial Number: 5 (0x5)
    Signature Algorithm: sha256WithRSAEncryption
        Issuer: C=FR, ST=Radius, L=Somewhere, O=Example Inc/emailAddress=admin@example.org, CN=Example Certificate Authority
        Validity
            Not Before: Mar 25 12:43:55 2019 GMT
            Not After : Mar 24 12:43:55 2020 GMT
        Subject: C=FR, ST=Radius, O=Example Inc, CN=Example OCSP Responder Certificate/emailAddress=admin@example.org
        Subject Public Key Info:
            Public Key Algorithm: rsaEncryption
                Public-Key: (2048 bit)
                Modulus:
                    00:a7:f7:2a:92:76:7e:32:8f:76:17:c6:cb:34:7c:
                    39:af:ef:49:42:67:33:0d:68:24:aa:7e:03:b0:96:
                    40:2f:bc:20:41:f8:82:21:28:e5:b5:ac:60:38:e2:
                    a9:64:83:9a:ce:b8:bd:e7:ef:ec:84:6a:85:02:98:
                    5d:2d:cc:45:4b:e0:44:19:14:e9:7d:d5:a4:c3:3c:
                    11:51:83:0c:cd:a2:ae:96:db:b0:4a:25:03:23:64:
                    d4:6c:6b:08:f9:86:8c:8b:72:fe:89:5f:b8:51:9a:
                    09:1b:8c:70:93:3f:52:07:b5:d5:4b:30:09:38:64:
                    00:f3:8b:92:b4:2f:14:a0:2e:58:c2:30:eb:70:85:
                    3c:fd:30:f7:d9:a4:1b:73:18:9f:52:0e:4b:9d:37:
                    c7:bb:a1:d1:82:8f:ee:76:10:7b:2a:8d:a5:8d:86:
                    7a:7f:fe:92:42:27:c9:06:26:10:cd:01:16:bd:64:
                    46:0a:c6:38:c7:57:34:b1:bf:1f:59:48:7c:72:f1:
                    e1:c6:77:6d:41:68:ee:f1:b4:56:db:9c:09:92:eb:
                    bf:9d:b6:5f:d9:12:54:e2:fc:bc:f0:ae:45:e1:48:
                    dd:ac:f8:b1:a3:fc:c2:b7:e9:10:86:cf:50:47:a8:
                    61:56:ad:89:76:96:f5:e6:e8:29:e3:e2:a3:ab:aa:
                    69:8d
                Exponent: 65537 (0x10001)
        X509v3 extensions:
            X509v3 Basic Constraints:
                CA:FALSE
            X509v3 Key Usage:
                Digital Signature, Non Repudiation, Key Encipherment
            X509v3 Extended Key Usage:
                OCSP Signing
    Signature Algorithm: sha256WithRSAEncryption
         76:54:e8:47:0d:0b:a6:4f:e7:b2:21:99:18:db:b7:fa:ec:3a:
         81:9b:b7:65:8e:12:32:01:c7:8d:9e:a7:80:26:77:ca:2d:3a:
         0a:4a:90:ff:c2:39:ed:4a:6f:fb:9a:35:9b:cb:81:b3:c5:ad:
         48:3d:d8:ce:48:6f:6e:d6:b4:9b:b7:97:6c:c1:8a:1b:e6:dc:
         47:c7:57:ad:a5:a2:51:f8:b0:47:69:9a:de:59:db:bc:9a:83:
         5c:bc:d7:4a:12:fd:cc:33:e3:7e:2d:0c:3a:c1:84:51:30:92:
         36:da:3c:67:c7:58:42:25:68:7d:35:b7:d2:89:96:2a:ce:cb:
         51:53:61:8c:67:d8:91:f9:64:7f:e8:f8:10:2b:04:7c:a5:b8:
         8e:6f:4e:b1:80:d0:ee:6a:19:57:a1:d2:05:7f:fc:17:d2:30:
         94:cb:be:83:6c:99:92:c6:c0:e4:de:f0:99:39:2b:46:75:65:
         4a:62:3d:e9:ae:bc:3d:11:15:b7:0f:75:08:8d:35:d2:99:72:
         7f:ab:f8:97:12:f6:02:f5:70:96:77:c4:ba:f9:13:f1:db:6e:
         87:8d:5d:b9:5d:ac:c0:53:36:c4:ab:e7:a8:da:30:2d:eb:10:
         6d:6c:24:2a:52:cb:51:01:c7:1b:66:fd:e6:9d:35:98:e2:56:
         e7:de:e5:d5
-----BEGIN CERTIFICATE-----
MIIDwTCCAqmgAwIBAgIBBTANBgkqhkiG9w0BAQsFADCBkjELMAkGA1UEBhMCRlIx
DzANBgNVBAgMBlJhZGl1czESMBAGA1UEBwwJU29tZXdoZXJlMRQwEgYDVQQKDAtF
eGFtcGxlIEluYzEgMB4GCSqGSIb3DQEJARYRYWRtaW5AZXhhbXBsZS5vcmcxJjAk
BgNVBAMMHUV4YW1wbGUgQ2VydGlmaWNhdGUgQXV0aG9yaXR5MB4XDTE5MDMyNTEy
NDM1NVoXDTIwMDMyNDEyNDM1NVowgYMxCzAJBgNVBAYTAkZSMQ8wDQYDVQQIDAZS
YWRpdXMxFDASBgNVBAoMC0V4YW1wbGUgSW5jMSswKQYDVQQDDCJFeGFtcGxlIE9D
U1AgUmVzcG9uZGVyIENlcnRpZmljYXRlMSAwHgYJKoZIhvcNAQkBFhFhZG1pbkBl
eGFtcGxlLm9yZzCCASIwDQYJKoZIhvcNAQEBBQADggEPADCCAQoCggEBAKf3KpJ2
fjKPdhfGyzR8Oa/vSUJnMw1oJKp+A7CWQC+8IEH4giEo5bWsYDjiqWSDms64vefv
7IRqhQKYXS3MRUvgRBkU6X3VpMM8EVGDDM2irpbbsEolAyNk1GxrCPmGjIty/olf
uFGaCRuMcJM/Uge11UswCThkAPOLkrQvFKAuWMIw63CFPP0w99mkG3MYn1IOS503
x7uh0YKP7nYQeyqNpY2Gen/+kkInyQYmEM0BFr1kRgrGOMdXNLG/H1lIfHLx4cZ3
bUFo7vG0VtucCZLrv522X9kSVOL8vPCuReFI3az4saP8wrfpEIbPUEeoYVatiXaW
9eboKePio6uqaY0CAwEAAaMvMC0wCQYDVR0TBAIwADALBgNVHQ8EBAMCBeAwEwYD
VR0lBAwwCgYIKwYBBQUHAwkwDQYJKoZIhvcNAQELBQADggEBAHZU6EcNC6ZP57Ih
mRjbt/rsOoGbt2WOEjIBx42ep4Amd8otOgpKkP/COe1Kb/uaNZvLgbPFrUg92M5I
b27WtJu3l2zBihvm3EfHV62lolH4sEdpmt5Z27yag1y810oS/cwz434tDDrBhFEw
kjbaPGfHWEIlaH01t9KJlirOy1FTYYxn2JH5ZH/o+BArBHyluI5vTrGA0O5qGVeh
0gV//BfSMJTLvoNsmZLGwOTe8Jk5K0Z1ZUpiPemuvD0RFbcPdQiNNdKZcn+r+JcS
9gL1cJZ3xLr5E/HbboeNXbldrMBTNsSr56jaMC3rEG1sJCpSy1EBxxtm/eadNZji
Vufe5dU=
-----END CERTIFICATE-----
