Certificate:
    Data:
        Version: 3 (0x2)
        Serial Number: 5 (0x5)
        Signature Algorithm: sha256WithRSAEncryption
        Issuer: C=FR, ST=Radius, L=Somewhere, O=Example Inc/emailAddress=admin@example.org, CN=Example Certificate Authority
        Validity
            Not Before: Mar 25 14:12:33 2020 GMT
            Not After : Mar 25 14:12:33 2021 GMT
        Subject: C=FR, ST=Radius, O=Example Inc, CN=Example OCSP Responder Certificate/emailAddress=admin@example.org
        Subject Public Key Info:
            Public Key Algorithm: rsaEncryption
                RSA Public-Key: (2048 bit)
                Modulus:
                    00:d3:0a:b7:31:b9:d4:49:44:fc:ed:75:84:6c:32:
                    63:3e:57:d0:d8:b1:94:86:12:cd:97:24:68:75:d6:
                    77:78:56:24:d2:a1:63:a6:6c:a5:07:2c:83:07:d9:
                    07:db:14:ae:80:23:45:29:3d:12:a0:8f:98:98:03:
                    99:a4:6d:f8:4a:3a:79:03:2b:4e:82:0a:67:3f:72:
                    8c:c5:08:da:70:5e:0b:37:db:56:8a:38:58:4a:a3:
                    92:17:bb:2d:c2:f4:8b:ee:7f:32:49:4c:45:fe:e7:
                    93:72:79:0a:27:ec:8e:f1:df:c3:83:62:d0:6e:7e:
                    2b:01:37:3f:f3:37:59:b6:bf:c0:b6:17:28:e8:56:
                    ba:86:7f:0a:9a:20:51:9f:ae:97:48:d1:98:13:9f:
                    68:8d:3c:59:89:73:c4:b3:6e:11:5b:4a:5c:1d:db:
                    2b:1a:d7:b0:f0:9b:35:54:e3:36:e6:53:c8:d6:7f:
                    f5:31:8f:7e:bd:98:61:b3:60:4b:50:4f:c0:31:48:
                    9c:61:1f:85:e5:1f:f6:9e:0b:3c:d5:4c:be:8d:28:
                    1d:69:30:20:92:75:e9:73:9f:3e:f0:89:2e:19:41:
                    17:be:c7:d6:72:a5:b1:b4:ab:2b:f2:96:c5:4d:49:
                    fa:e6:aa:4a:66:ba:a7:6d:e6:32:af:43:11:c0:60:
                    9f:1d
                Exponent: 65537 (0x10001)
        X509v3 extensions:
            X509v3 Basic Constraints: 
                CA:FALSE
            X509v3 Key Usage: 
                Digital Signature, Non Repudiation, Key Encipherment
            X509v3 Extended Key Usage: 
                OCSP Signing
    Signature Algorithm: sha256WithRSAEncryption
         92:68:81:f1:5d:1a:8c:89:6a:60:6e:91:23:ee:5d:66:55:b4:
         07:db:50:d5:12:32:3b:e8:38:92:2d:01:d0:fa:99:41:5d:73:
         c9:38:21:72:df:ee:96:cf:91:5f:70:9b:dd:3e:df:ee:6e:e8:
         dd:98:62:7b:25:24:79:3a:31:0e:0c:ec:e9:6a:8d:88:2d:29:
         1a:3b:ba:ce:e6:c5:8f:8b:0a:86:34:76:66:dc:0c:7f:1b:40:
         66:fe:7b:87:0c:f5:03:76:be:70:69:1a:0d:a5:e1:7a:a4:cd:
         e4:e6:f4:a7:52:d1:ba:62:94:bf:84:99:42:01:49:5c:6c:15:
         11:93:6a:38:fe:4c:1c:51:42:a2:f1:ae:98:b0:a6:9c:76:88:
         e7:a2:cd:8f:ea:ae:09:99:ed:43:3f:05:c7:48:98:5c:2a:77:
         4d:07:c5:61:e7:4c:9b:47:26:58:e9:03:76:3d:d3:7a:c6:bb:
         21:39:f6:17:51:d7:2a:a8:8e:29:45:fb:bb:b5:e2:e9:1b:55:
         66:23:30:25:d5:f1:ce:fc:73:c1:cc:4b:50:74:bf:58:3e:79:
         17:f8:8d:5e:3c:03:86:3e:0d:b7:29:ce:8f:61:03:72:b1:38:
         f4:72:32:ff:f8:39:1c:4f:db:3c:ad:e8:1f:5b:7d:71:40:b1:
         97:fd:d7:4c
-----BEGIN CERTIFICATE-----
MIIDwTCCAqmgAwIBAgIBBTANBgkqhkiG9w0BAQsFADCBkjELMAkGA1UEBhMCRlIx
DzANBgNVBAgMBlJhZGl1czESMBAGA1UEBwwJU29tZXdoZXJlMRQwEgYDVQQKDAtF
eGFtcGxlIEluYzEgMB4GCSqGSIb3DQEJARYRYWRtaW5AZXhhbXBsZS5vcmcxJjAk
BgNVBAMMHUV4YW1wbGUgQ2VydGlmaWNhdGUgQXV0aG9yaXR5MB4XDTIwMDMyNTE0
MTIzM1oXDTIxMDMyNTE0MTIzM1owgYMxCzAJBgNVBAYTAkZSMQ8wDQYDVQQIDAZS
YWRpdXMxFDASBgNVBAoMC0V4YW1wbGUgSW5jMSswKQYDVQQDDCJFeGFtcGxlIE9D
U1AgUmVzcG9uZGVyIENlcnRpZmljYXRlMSAwHgYJKoZIhvcNAQkBFhFhZG1pbkBl
eGFtcGxlLm9yZzCCASIwDQYJKoZIhvcNAQEBBQADggEPADCCAQoCggEBANMKtzG5
1ElE/O11hGwyYz5X0NixlIYSzZckaHXWd3hWJNKhY6ZspQcsgwfZB9sUroAjRSk9
EqCPmJgDmaRt+Eo6eQMrToIKZz9yjMUI2nBeCzfbVoo4WEqjkhe7LcL0i+5/MklM
Rf7nk3J5CifsjvHfw4Ni0G5+KwE3P/M3Wba/wLYXKOhWuoZ/CpogUZ+ul0jRmBOf
aI08WYlzxLNuEVtKXB3bKxrXsPCbNVTjNuZTyNZ/9TGPfr2YYbNgS1BPwDFInGEf
heUf9p4LPNVMvo0oHWkwIJJ16XOfPvCJLhlBF77H1nKlsbSrK/KWxU1J+uaqSma6
p23mMq9DEcBgnx0CAwEAAaMvMC0wCQYDVR0TBAIwADALBgNVHQ8EBAMCBeAwEwYD
VR0lBAwwCgYIKwYBBQUHAwkwDQYJKoZIhvcNAQELBQADggEBAJJogfFdGoyJamBu
kSPuXWZVtAfbUNUSMjvoOJItAdD6mUFdc8k4IXLf7pbPkV9wm90+3+5u6N2YYnsl
JHk6MQ4M7OlqjYgtKRo7us7mxY+LCoY0dmbcDH8bQGb+e4cM9QN2vnBpGg2l4Xqk
zeTm9KdS0bpilL+EmUIBSVxsFRGTajj+TBxRQqLxrpiwppx2iOeizY/qrgmZ7UM/
BcdImFwqd00HxWHnTJtHJljpA3Y903rGuyE59hdR1yqojilF+7u14ukbVWYjMCXV
8c78c8HMS1B0v1g+eRf4jV48A4Y+Dbcpzo9hA3KxOPRyMv/4ORxP2zyt6B9bfXFA
sZf910w=
-----END CERTIFICATE-----
