Certificate:
    Data:
        Version: 3 (0x2)
        Serial Number: 1 (0x1)
        Signature Algorithm: sha256WithRSAEncryption
        Issuer: C=FR, ST=Radius, L=Somewhere, O=Example Inc/emailAddress=admin@example.org, CN=Example Certificate Authority
        Validity
            Not Before: May 26 15:40:51 2021 GMT
            Not After : May 26 15:40:51 2022 GMT
        Subject: C=FR, ST=Radius, O=Example Inc, CN=Example Server Certificate/emailAddress=admin@example.org
        Subject Public Key Info:
            Public Key Algorithm: rsaEncryption
                RSA Public-Key: (2048 bit)
                Modulus:
                    00:d9:55:1d:fa:eb:53:e8:90:b6:f7:a8:01:7d:d4:
                    c7:fd:6d:b4:4b:7a:f5:16:80:d5:1e:05:45:e8:1f:
                    f1:38:d0:a7:76:a8:14:e0:4f:be:74:4f:8e:00:46:
                    13:b4:55:d0:34:10:94:48:7f:67:ba:01:86:4c:04:
                    ae:94:9f:45:05:d3:d1:43:bc:67:6a:bf:89:f8:84:
                    47:dd:bf:0c:50:fd:0c:8e:53:14:f5:68:eb:d7:33:
                    0c:d7:cf:a8:66:bc:8c:17:35:1e:f5:69:b6:15:9c:
                    2c:f4:40:d8:0c:d0:64:21:8b:10:78:c7:c4:13:a1:
                    08:1b:71:a3:f1:69:a8:88:06:32:13:06:ee:3c:64:
                    1e:b7:f9:a5:97:be:1e:16:23:b3:84:f7:81:67:b5:
                    c1:6d:27:0d:d5:12:5d:37:f8:c4:9e:ae:ae:66:1a:
                    96:87:51:1d:86:72:ad:64:f9:e1:79:e6:47:d1:6d:
                    18:61:54:99:dc:36:de:a3:ac:09:ae:22:5b:47:e2:
                    2a:2d:31:84:a0:52:9f:ab:fb:2f:41:fb:a7:e7:13:
                    99:7f:4f:6a:5a:24:51:18:9e:8c:4c:3a:44:ae:34:
                    56:6a:47:a3:c7:35:1a:d6:f4:83:96:ab:b6:8e:10:
                    33:50:67:30:6c:86:78:70:f9:42:ba:85:d5:4f:e9:
                    db:c3
                Exponent: 65537 (0x10001)
        X509v3 extensions:
            X509v3 Subject Key Identifier: 
                DC:2F:23:C3:A5:4D:71:F4:65:2B:92:95:67:54:67:A2:C0:F4:1B:2E
            X509v3 Authority Key Identifier: 
                keyid:92:45:B9:E3:95:C9:E4:CE:C3:FA:E9:DA:70:46:BF:A0:14:83:00:6B
                DirName:/C=FR/ST=Radius/L=Somewhere/O=Example Inc/emailAddress=admin@example.org/CN=Example Certificate Authority
                serial:71:A3:36:56:60:87:E8:F1:C8:84:59:18:F5:DB:35:98:73:C3:D8:55

            X509v3 Basic Constraints: 
                CA:FALSE
            X509v3 Key Usage: 
                Digital Signature, Non Repudiation, Key Encipherment
            X509v3 Extended Key Usage: 
                TLS Web Server Authentication, 1.3.6.1.5.5.7.3.14
            X509v3 CRL Distribution Points: 

                Full Name:
                  URI:http://www.example.com/example_ca.crl

            Authority Information Access: 
                OCSP - URI:http://www.example.org/ocsp

            X509v3 Subject Alternative Name: 
                DNS:radius.example.org, othername:<unsupported>
    Signature Algorithm: sha256WithRSAEncryption
         51:ef:55:c1:5a:37:1a:b2:e3:5b:c2:94:70:ea:56:8e:30:f9:
         f4:3d:8b:5c:9b:1a:d4:96:59:c9:11:02:c2:74:8b:32:b0:c7:
         b3:59:45:76:47:fd:9d:0c:88:4e:8b:40:bf:d3:13:70:43:7e:
         81:84:3f:dc:bd:30:d7:f9:3f:b1:66:9f:ff:bd:77:f6:a0:ae:
         9f:fa:ba:7c:8a:21:af:ab:ef:12:eb:4f:f1:f8:ce:9c:32:30:
         33:4a:6a:ce:18:f9:3c:85:b3:a0:74:25:5b:27:96:da:62:53:
         c4:f7:11:d3:e3:43:9e:88:ba:91:6b:45:f4:3f:9e:4b:ec:44:
         bf:14:9e:a7:d5:04:dc:57:bf:d5:c8:0b:ca:86:c4:a2:a1:1b:
         96:7a:5e:51:e4:ee:b5:db:36:9a:c5:75:d1:97:4c:cf:dd:ec:
         08:15:5a:08:51:55:7c:b5:92:be:8e:53:9b:9b:bf:04:3a:54:
         85:2c:34:f1:17:0a:9f:5a:82:69:02:0f:55:20:b5:6a:66:35:
         19:55:6a:75:15:e6:0c:75:67:3e:45:5c:ee:b0:a1:c6:4e:f8:
         ca:7f:79:38:62:30:15:3a:ab:12:52:7c:f2:7b:46:02:65:1c:
         b8:3a:67:fd:41:4e:d6:19:e8:ae:86:4c:4f:1c:c0:c6:59:64:
         26:08:6a:ec
-----BEGIN CERTIFICATE-----
MIIFZzCCBE+gAwIBAgIBATANBgkqhkiG9w0BAQsFADCBkjELMAkGA1UEBhMCRlIx
DzANBgNVBAgMBlJhZGl1czESMBAGA1UEBwwJU29tZXdoZXJlMRQwEgYDVQQKDAtF
eGFtcGxlIEluYzEgMB4GCSqGSIb3DQEJARYRYWRtaW5AZXhhbXBsZS5vcmcxJjAk
BgNVBAMMHUV4YW1wbGUgQ2VydGlmaWNhdGUgQXV0aG9yaXR5MB4XDTIxMDUyNjE1
NDA1MVoXDTIyMDUyNjE1NDA1MVowezELMAkGA1UEBhMCRlIxDzANBgNVBAgMBlJh
ZGl1czEUMBIGA1UECgwLRXhhbXBsZSBJbmMxIzAhBgNVBAMMGkV4YW1wbGUgU2Vy
dmVyIENlcnRpZmljYXRlMSAwHgYJKoZIhvcNAQkBFhFhZG1pbkBleGFtcGxlLm9y
ZzCCASIwDQYJKoZIhvcNAQEBBQADggEPADCCAQoCggEBANlVHfrrU+iQtveoAX3U
x/1ttEt69RaA1R4FRegf8TjQp3aoFOBPvnRPjgBGE7RV0DQQlEh/Z7oBhkwErpSf
RQXT0UO8Z2q/ifiER92/DFD9DI5TFPVo69czDNfPqGa8jBc1HvVpthWcLPRA2AzQ
ZCGLEHjHxBOhCBtxo/FpqIgGMhMG7jxkHrf5pZe+HhYjs4T3gWe1wW0nDdUSXTf4
xJ6urmYalodRHYZyrWT54XnmR9FtGGFUmdw23qOsCa4iW0fiKi0xhKBSn6v7L0H7
p+cTmX9PalokURiejEw6RK40VmpHo8c1Gtb0g5arto4QM1BnMGyGeHD5QrqF1U/p
28MCAwEAAaOCAdwwggHYMB0GA1UdDgQWBBTcLyPDpU1x9GUrkpVnVGeiwPQbLjCB
0gYDVR0jBIHKMIHHgBSSRbnjlcnkzsP66dpwRr+gFIMAa6GBmKSBlTCBkjELMAkG
A1UEBhMCRlIxDzANBgNVBAgMBlJhZGl1czESMBAGA1UEBwwJU29tZXdoZXJlMRQw
EgYDVQQKDAtFeGFtcGxlIEluYzEgMB4GCSqGSIb3DQEJARYRYWRtaW5AZXhhbXBs
ZS5vcmcxJjAkBgNVBAMMHUV4YW1wbGUgQ2VydGlmaWNhdGUgQXV0aG9yaXR5ghRx
ozZWYIfo8ciEWRj12zWYc8PYVTAJBgNVHRMEAjAAMAsGA1UdDwQEAwIF4DAdBgNV
HSUEFjAUBggrBgEFBQcDAQYIKwYBBQUHAw4wNgYDVR0fBC8wLTAroCmgJ4YlaHR0
cDovL3d3dy5leGFtcGxlLmNvbS9leGFtcGxlX2NhLmNybDA3BggrBgEFBQcBAQQr
MCkwJwYIKwYBBQUHMAGGG2h0dHA6Ly93d3cuZXhhbXBsZS5vcmcvb2NzcDA6BgNV
HREEMzAxghJyYWRpdXMuZXhhbXBsZS5vcmegGwYIKwYBBQUHCAigDwwNKi5leGFt
cGxlLmNvbTANBgkqhkiG9w0BAQsFAAOCAQEAUe9VwVo3GrLjW8KUcOpWjjD59D2L
XJsa1JZZyRECwnSLMrDHs1lFdkf9nQyITotAv9MTcEN+gYQ/3L0w1/k/sWaf/713
9qCun/q6fIohr6vvEutP8fjOnDIwM0pqzhj5PIWzoHQlWyeW2mJTxPcR0+NDnoi6
kWtF9D+eS+xEvxSep9UE3Fe/1cgLyobEoqEblnpeUeTutds2msV10ZdMz93sCBVa
CFFVfLWSvo5Tm5u/BDpUhSw08RcKn1qCaQIPVSC1amY1GVVqdRXmDHVnPkVc7rCh
xk74yn95OGIwFTqrElJ88ntGAmUcuDpn/UFO1hnoroZMTxzAxllkJghq7A==
-----END CERTIFICATE-----
