Certificate:
    Data:
        Version: 3 (0x2)
        Serial Number: 1 (0x1)
    Signature Algorithm: sha256WithRSAEncryption
        Issuer: C=FR, ST=Radius, L=Somewhere, O=Example Inc/emailAddress=admin@example.org, CN=Example Certificate Authority
        Validity
            Not Before: Mar 25 12:43:55 2019 GMT
            Not After : Mar 24 12:43:55 2020 GMT
        Subject: C=FR, ST=Radius, O=Example Inc, CN=Example Server Certificate/emailAddress=admin@example.org
        Subject Public Key Info:
            Public Key Algorithm: rsaEncryption
                Public-Key: (2048 bit)
                Modulus:
                    00:d7:de:14:bf:8f:56:cb:d6:0e:9b:bc:08:e8:51:
                    c5:11:c7:9b:dd:41:bb:19:10:a7:ec:5d:39:17:b3:
                    e6:61:bd:7c:2c:a0:cc:d4:f9:2c:d8:c7:80:a7:9a:
                    e9:dd:a5:bf:52:f0:53:ef:ed:a5:26:93:e4:ae:d8:
                    7b:96:16:9c:44:f5:15:29:06:86:91:05:3f:f4:3b:
                    7e:1b:b3:e9:3c:af:be:ef:6e:4e:ae:09:2c:b0:8b:
                    ed:9f:56:56:e0:21:21:9f:84:eb:f6:84:d8:a8:b0:
                    64:9e:d0:78:16:e4:af:1b:fa:e4:f9:dd:0f:7c:0f:
                    0e:ca:e7:ee:9d:8a:d7:61:e2:05:1e:7b:00:c5:c7:
                    a3:72:48:e5:4b:87:37:ad:bb:79:e9:40:45:e2:9b:
                    a2:38:f0:e6:7f:e1:98:b2:67:39:b9:a8:db:41:c4:
                    74:48:92:39:61:42:f1:51:b8:7d:b9:06:23:58:08:
                    8a:04:f9:8c:74:e3:d0:20:e4:ad:85:7e:0c:6c:61:
                    49:ba:9a:10:83:0d:f2:59:b7:61:11:49:eb:8b:88:
                    b7:47:37:9c:27:6f:1c:bd:36:d7:86:72:40:54:85:
                    a9:5d:dd:4f:01:19:19:2c:4e:eb:9d:d1:82:a6:2e:
                    4d:cd:0a:6b:c6:1e:6c:df:f8:3d:f6:c4:74:49:70:
                    80:f5
                Exponent: 65537 (0x10001)
        X509v3 extensions:
            X509v3 Basic Constraints:
                CA:FALSE
            X509v3 Key Usage:
                Digital Signature, Non Repudiation, Key Encipherment
            X509v3 Extended Key Usage:
                TLS Web Server Authentication
            X509v3 CRL Distribution Points:

                Full Name:
                  URI:http://www.example.com/example_ca.crl

            Authority Information Access:
                OCSP - URI:http://www.example.org/ocsp

    Signature Algorithm: sha256WithRSAEncryption
         32:80:74:5d:27:1c:17:dc:8a:33:a6:da:70:7f:81:39:61:45:
         f7:d0:f2:dc:bd:8f:62:a6:64:a3:1b:ce:4d:66:b8:9c:4c:aa:
         58:27:3f:bc:e8:f3:cf:df:f4:ba:4c:ea:73:f4:05:30:31:12:
         dc:a8:6e:1e:23:2f:35:6f:b0:8a:3f:49:4f:0d:e9:54:8f:84:
         cd:0b:8c:bf:b6:21:4a:78:ff:26:91:52:d5:6f:de:e0:b0:6c:
         8b:21:4a:f1:16:c6:2b:60:c0:ec:33:06:ae:bd:6c:ee:33:7d:
         df:77:36:f7:75:e7:0f:bc:f0:59:a2:db:14:cb:a8:b7:18:0e:
         58:7c:16:7d:18:99:8d:ec:bb:ed:58:cd:3d:99:1a:8f:69:f3:
         4c:34:25:d4:e4:53:92:a9:4b:81:20:d7:79:0a:58:ea:8f:c6:
         9f:54:d4:94:ce:21:41:55:82:39:fb:1f:0c:6f:86:4a:1c:c5:
         4d:62:d8:4e:5b:7e:78:48:99:7c:51:c5:57:df:68:ff:ea:53:
         b4:3a:1e:f7:b7:2f:95:76:ba:a0:98:c1:1e:ea:e4:67:a9:85:
         48:ff:1a:a4:04:01:ee:b9:e6:14:b0:2a:75:bb:59:da:b7:ea:
         df:00:32:d2:c9:c8:a9:52:22:6a:8e:38:94:c1:b6:e8:bd:83:
         71:48:39:47
-----BEGIN CERTIFICATE-----
MIIEKzCCAxOgAwIBAgIBATANBgkqhkiG9w0BAQsFADCBkjELMAkGA1UEBhMCRlIx
DzANBgNVBAgMBlJhZGl1czESMBAGA1UEBwwJU29tZXdoZXJlMRQwEgYDVQQKDAtF
eGFtcGxlIEluYzEgMB4GCSqGSIb3DQEJARYRYWRtaW5AZXhhbXBsZS5vcmcxJjAk
BgNVBAMMHUV4YW1wbGUgQ2VydGlmaWNhdGUgQXV0aG9yaXR5MB4XDTE5MDMyNTEy
NDM1NVoXDTIwMDMyNDEyNDM1NVowezELMAkGA1UEBhMCRlIxDzANBgNVBAgMBlJh
ZGl1czEUMBIGA1UECgwLRXhhbXBsZSBJbmMxIzAhBgNVBAMMGkV4YW1wbGUgU2Vy
dmVyIENlcnRpZmljYXRlMSAwHgYJKoZIhvcNAQkBFhFhZG1pbkBleGFtcGxlLm9y
ZzCCASIwDQYJKoZIhvcNAQEBBQADggEPADCCAQoCggEBANfeFL+PVsvWDpu8COhR
xRHHm91BuxkQp+xdORez5mG9fCygzNT5LNjHgKea6d2lv1LwU+/tpSaT5K7Ye5YW
nET1FSkGhpEFP/Q7fhuz6Tyvvu9uTq4JLLCL7Z9WVuAhIZ+E6/aE2KiwZJ7QeBbk
rxv65PndD3wPDsrn7p2K12HiBR57AMXHo3JI5UuHN627eelAReKbojjw5n/hmLJn
Obmo20HEdEiSOWFC8VG4fbkGI1gIigT5jHTj0CDkrYV+DGxhSbqaEIMN8lm3YRFJ
64uIt0c3nCdvHL0214ZyQFSFqV3dTwEZGSxO653RgqYuTc0Ka8YebN/4PfbEdElw
gPUCAwEAAaOBoTCBnjAJBgNVHRMEAjAAMAsGA1UdDwQEAwIF4DATBgNVHSUEDDAK
BggrBgEFBQcDATA2BgNVHR8ELzAtMCugKaAnhiVodHRwOi8vd3d3LmV4YW1wbGUu
Y29tL2V4YW1wbGVfY2EuY3JsMDcGCCsGAQUFBwEBBCswKTAnBggrBgEFBQcwAYYb
aHR0cDovL3d3dy5leGFtcGxlLm9yZy9vY3NwMA0GCSqGSIb3DQEBCwUAA4IBAQAy
gHRdJxwX3Iozptpwf4E5YUX30PLcvY9ipmSjG85NZricTKpYJz+86PPP3/S6TOpz
9AUwMRLcqG4eIy81b7CKP0lPDelUj4TNC4y/tiFKeP8mkVLVb97gsGyLIUrxFsYr
YMDsMwauvWzuM33fdzb3decPvPBZotsUy6i3GA5YfBZ9GJmN7LvtWM09mRqPafNM
NCXU5FOSqUuBINd5Cljqj8afVNSUziFBVYI5+x8Mb4ZKHMVNYthOW354SJl8UcVX
32j/6lO0Oh73ty+VdrqgmMEe6uRnqYVI/xqkBAHuueYUsCp1u1nat+rfADLSycip
UiJqjjiUwbbovYNxSDlH
-----END CERTIFICATE-----
