Certificate:
    Data:
        Version: 3 (0x2)
        Serial Number: 1 (0x1)
        Signature Algorithm: sha256WithRSAEncryption
        Issuer: C=FR, ST=Radius, L=Somewhere, O=Example Inc/emailAddress=admin@example.org, CN=Example Certificate Authority
        Validity
            Not Before: May 30 15:47:49 2022 GMT
            Not After : May 30 15:47:49 2023 GMT
        Subject: C=FR, ST=Radius, O=Example Inc, CN=Example Server Certificate/emailAddress=admin@example.org
        Subject Public Key Info:
            Public Key Algorithm: rsaEncryption
                Public-Key: (2048 bit)
                Modulus:
                    00:ba:19:8d:33:3d:74:cc:d5:b7:ed:26:83:5c:5d:
                    2c:5c:93:be:27:67:84:86:a4:19:ed:6a:23:55:fa:
                    a6:d4:08:62:05:2c:73:02:65:83:33:18:c9:a1:96:
                    2c:f7:a3:30:f3:bf:86:f7:dc:91:7f:46:83:7f:5b:
                    47:a4:40:92:5c:32:f9:a7:d3:c9:96:6a:c5:d5:42:
                    f0:dc:5a:ee:9a:8d:6d:ce:d4:48:68:c0:1d:00:00:
                    36:82:d7:b3:e1:fc:05:e7:95:9e:ca:54:b9:31:de:
                    96:7c:f3:e9:68:43:72:fd:ef:4f:97:f1:ea:e0:55:
                    21:39:d9:23:6b:a0:69:bd:d1:65:1b:39:cc:8a:4c:
                    76:d0:5e:10:1d:c1:a9:f0:c5:ff:d9:c8:ed:7d:88:
                    41:eb:2e:b2:a3:5a:4d:2d:45:e5:d2:c4:d9:e4:aa:
                    c2:d2:33:f5:6b:b8:43:d3:4d:6e:6f:ca:d3:e8:0e:
                    22:4e:0b:85:df:0c:ea:fc:82:8f:0a:cd:ba:7d:aa:
                    89:2f:8f:8f:2c:b1:e0:ce:6e:de:8a:6b:1d:83:27:
                    34:ba:54:16:f5:c9:ec:97:b7:3e:5a:fb:6a:e4:ea:
                    d1:f2:c5:40:35:96:8c:f4:b9:ce:ba:af:33:f1:8c:
                    39:9a:ee:c8:9a:da:4b:d9:c6:1b:b1:e1:25:c4:12:
                    32:65
                Exponent: 65537 (0x10001)
        X509v3 extensions:
            X509v3 Subject Key Identifier: 
                EA:3D:88:BA:41:9B:56:18:E8:F5:34:35:2D:91:BC:F0:C7:85:BF:D9
            X509v3 Authority Key Identifier: 
                keyid:1D:04:C7:8A:D5:15:0C:5C:33:93:99:C8:51:42:59:6B:87:3D:9B:C0
                DirName:/C=FR/ST=Radius/L=Somewhere/O=Example Inc/emailAddress=admin@example.org/CN=Example Certificate Authority
                serial:4A:0F:9A:7C:50:92:F9:12:2D:F5:7B:C1:83:55:3F:47:F2:C9:AB:FA
            X509v3 Basic Constraints: 
                CA:FALSE
            X509v3 Key Usage: 
                Digital Signature, Non Repudiation, Key Encipherment
            X509v3 Extended Key Usage: 
                TLS Web Server Authentication, 1.3.6.1.5.5.7.3.14
            X509v3 CRL Distribution Points: 
                Full Name:
                  URI:http://www.example.com/example_ca.crl
            Authority Information Access: 
                OCSP - URI:http://www.example.org/ocsp
            X509v3 Subject Alternative Name: 
                DNS:radius.example.org, othername: NAIRealm::*.example.com
    Signature Algorithm: sha256WithRSAEncryption
    Signature Value:
        49:ce:fa:76:5e:07:66:ea:e5:1c:0e:d4:f5:c6:c3:8c:bc:32:
        39:73:8a:24:ed:56:20:4d:f5:e9:5e:df:06:0e:13:52:99:df:
        ad:53:e8:13:d7:b1:55:1a:f2:c1:dd:84:a1:6c:31:e1:38:84:
        52:93:60:d2:1a:9b:5d:61:81:f8:1f:22:99:fc:8c:75:f4:d6:
        ff:65:46:37:56:60:61:a6:ef:28:cc:36:25:e4:01:9d:73:25:
        79:f9:5f:69:5e:2f:aa:42:1c:22:4f:9e:5c:66:78:ff:7f:86:
        c4:28:3c:c1:85:b9:bb:2f:30:4c:71:8a:ed:fe:c0:09:6d:e4:
        c3:5f:44:1b:93:00:b4:b2:16:cc:e5:d4:28:70:7a:ea:59:09:
        48:27:36:fb:8a:e9:e4:fc:2d:49:fa:d2:d4:31:a3:f5:e5:81:
        77:25:57:b2:4a:7a:f4:48:c2:72:af:1f:bd:10:56:b6:b8:a2:
        c4:66:4a:49:f5:76:93:05:a5:1a:22:8b:11:4a:81:3f:e0:97:
        c6:63:49:a3:05:45:67:8f:f9:05:ce:24:e3:68:5b:e5:16:e7:
        23:da:4b:0e:14:48:b2:d0:7f:06:9d:b5:64:a2:63:40:87:e1:
        fb:51:b8:b6:4c:43:3d:3b:b1:2e:1c:55:48:eb:df:d7:5f:f8:
        a4:4e:74:bd
-----BEGIN CERTIFICATE-----
MIIFZzCCBE+gAwIBAgIBATANBgkqhkiG9w0BAQsFADCBkjELMAkGA1UEBhMCRlIx
DzANBgNVBAgMBlJhZGl1czESMBAGA1UEBwwJU29tZXdoZXJlMRQwEgYDVQQKDAtF
eGFtcGxlIEluYzEgMB4GCSqGSIb3DQEJARYRYWRtaW5AZXhhbXBsZS5vcmcxJjAk
BgNVBAMMHUV4YW1wbGUgQ2VydGlmaWNhdGUgQXV0aG9yaXR5MB4XDTIyMDUzMDE1
NDc0OVoXDTIzMDUzMDE1NDc0OVowezELMAkGA1UEBhMCRlIxDzANBgNVBAgMBlJh
ZGl1czEUMBIGA1UECgwLRXhhbXBsZSBJbmMxIzAhBgNVBAMMGkV4YW1wbGUgU2Vy
dmVyIENlcnRpZmljYXRlMSAwHgYJKoZIhvcNAQkBFhFhZG1pbkBleGFtcGxlLm9y
ZzCCASIwDQYJKoZIhvcNAQEBBQADggEPADCCAQoCggEBALoZjTM9dMzVt+0mg1xd
LFyTvidnhIakGe1qI1X6ptQIYgUscwJlgzMYyaGWLPejMPO/hvfckX9Gg39bR6RA
klwy+afTyZZqxdVC8Nxa7pqNbc7USGjAHQAANoLXs+H8BeeVnspUuTHelnzz6WhD
cv3vT5fx6uBVITnZI2ugab3RZRs5zIpMdtBeEB3BqfDF/9nI7X2IQesusqNaTS1F
5dLE2eSqwtIz9Wu4Q9NNbm/K0+gOIk4Lhd8M6vyCjwrNun2qiS+Pjyyx4M5u3opr
HYMnNLpUFvXJ7Je3Plr7auTq0fLFQDWWjPS5zrqvM/GMOZruyJraS9nGG7HhJcQS
MmUCAwEAAaOCAdwwggHYMB0GA1UdDgQWBBTqPYi6QZtWGOj1NDUtkbzwx4W/2TCB
0gYDVR0jBIHKMIHHgBQdBMeK1RUMXDOTmchRQllrhz2bwKGBmKSBlTCBkjELMAkG
A1UEBhMCRlIxDzANBgNVBAgMBlJhZGl1czESMBAGA1UEBwwJU29tZXdoZXJlMRQw
EgYDVQQKDAtFeGFtcGxlIEluYzEgMB4GCSqGSIb3DQEJARYRYWRtaW5AZXhhbXBs
ZS5vcmcxJjAkBgNVBAMMHUV4YW1wbGUgQ2VydGlmaWNhdGUgQXV0aG9yaXR5ghRK
D5p8UJL5Ei31e8GDVT9H8smr+jAJBgNVHRMEAjAAMAsGA1UdDwQEAwIF4DAdBgNV
HSUEFjAUBggrBgEFBQcDAQYIKwYBBQUHAw4wNgYDVR0fBC8wLTAroCmgJ4YlaHR0
cDovL3d3dy5leGFtcGxlLmNvbS9leGFtcGxlX2NhLmNybDA3BggrBgEFBQcBAQQr
MCkwJwYIKwYBBQUHMAGGG2h0dHA6Ly93d3cuZXhhbXBsZS5vcmcvb2NzcDA6BgNV
HREEMzAxghJyYWRpdXMuZXhhbXBsZS5vcmegGwYIKwYBBQUHCAigDwwNKi5leGFt
cGxlLmNvbTANBgkqhkiG9w0BAQsFAAOCAQEASc76dl4HZurlHA7U9cbDjLwyOXOK
JO1WIE316V7fBg4TUpnfrVPoE9exVRrywd2EoWwx4TiEUpNg0hqbXWGB+B8imfyM
dfTW/2VGN1ZgYabvKMw2JeQBnXMleflfaV4vqkIcIk+eXGZ4/3+GxCg8wYW5uy8w
THGK7f7ACW3kw19EG5MAtLIWzOXUKHB66lkJSCc2+4rp5PwtSfrS1DGj9eWBdyVX
skp69EjCcq8fvRBWtriixGZKSfV2kwWlGiKLEUqBP+CXxmNJowVFZ4/5Bc4k42hb
5RbnI9pLDhRIstB/Bp21ZKJjQIfh+1G4tkxDPTuxLhxVSOvf11/4pE50vQ==
-----END CERTIFICATE-----
