Certificate:
    Data:
        Version: 3 (0x2)
        Serial Number: 1 (0x1)
    Signature Algorithm: sha256WithRSAEncryption
        Issuer: C=FR, ST=Radius, L=Somewhere, O=Example Inc/emailAddress=admin@example.org, CN=Example Certificate Authority
        Validity
            Not Before: Mar 25 19:12:36 2021 GMT
            Not After : May 24 19:12:36 2021 GMT
        Subject: C=FR, ST=Radius, O=Example Inc, CN=Example Server Certificate/emailAddress=admin@example.org
        Subject Public Key Info:
            Public Key Algorithm: rsaEncryption
                Public-Key: (2048 bit)
                Modulus:
                    00:e9:72:1d:7b:8c:b3:a7:6e:77:0b:7c:ad:77:b4:
                    58:d5:3c:bd:83:29:74:39:42:8c:f9:e0:bf:6c:22:
                    9d:e0:93:2f:f4:36:68:49:d9:c1:01:98:49:8e:95:
                    2e:92:96:e2:cd:8f:3a:11:6a:67:a1:9e:51:5a:50:
                    1d:b8:f2:fc:cb:a5:b6:92:05:37:ae:a5:f5:6b:f1:
                    50:45:f7:28:a3:a2:58:bd:4c:c5:0f:74:9c:de:fc:
                    53:70:46:18:e5:22:8a:ad:64:3b:11:67:1b:69:92:
                    7c:aa:33:e3:90:96:e2:06:1f:26:f4:f7:a0:34:ca:
                    98:dd:10:72:b2:7d:1a:ce:9d:07:3c:0d:11:bc:50:
                    00:d7:87:61:1a:a5:4a:79:15:2a:0b:4f:3e:f9:d0:
                    5b:e0:c7:90:df:5b:bb:98:21:67:69:0e:b4:38:24:
                    a7:4c:8d:84:94:38:90:26:ea:2f:c7:4e:d0:4a:ee:
                    9c:bf:55:ed:b9:30:e8:49:68:11:16:e9:e2:49:84:
                    60:51:c5:0e:7a:a3:35:d4:e6:12:ee:b9:8b:0e:c4:
                    95:d3:f8:e0:b7:de:67:aa:17:67:e9:a6:0b:a5:09:
                    a7:db:9d:e3:46:94:d8:f2:1d:27:aa:c1:5d:6e:97:
                    8d:e9:26:c2:59:02:fa:bb:84:30:1a:de:08:99:ed:
                    bb:cf
                Exponent: 65537 (0x10001)
        X509v3 extensions:
            X509v3 Subject Key Identifier: 
                3E:05:C1:B7:AF:43:CC:D8:B5:FB:EF:29:F5:1F:9E:18:92:17:7D:00
            X509v3 Authority Key Identifier: 
                keyid:55:A6:1F:E2:36:28:5A:62:45:E5:30:C4:59:D7:04:F4:0C:51:4E:6E
                DirName:/C=FR/ST=Radius/L=Somewhere/O=Example Inc/emailAddress=admin@example.org/CN=Example Certificate Authority
                serial:F7:91:03:A0:61:5D:2E:7A

            X509v3 Basic Constraints: 
                CA:FALSE
            X509v3 Key Usage: 
                Digital Signature, Non Repudiation, Key Encipherment
            X509v3 Extended Key Usage: 
                TLS Web Server Authentication, 1.3.6.1.5.5.7.3.14
            X509v3 CRL Distribution Points: 

                Full Name:
                  URI:http://www.example.com/example_ca.crl

            Authority Information Access: 
                OCSP - URI:http://www.example.org/ocsp

            X509v3 Subject Alternative Name: 
                DNS:radius.example.org, othername:<unsupported>
    Signature Algorithm: sha256WithRSAEncryption
         38:03:fb:d0:7f:f6:f8:a2:44:1c:de:be:08:de:89:8b:2b:e2:
         cf:c6:2b:41:a8:fb:a1:ba:ad:dd:eb:7d:2a:b6:dc:fe:32:0c:
         db:69:02:5d:15:81:ad:cd:95:2e:08:df:e5:1e:76:75:37:b1:
         bc:25:7e:32:1f:cb:36:69:b2:b9:58:4a:2c:53:99:ff:9f:d2:
         99:bd:b1:f4:63:27:f4:be:76:92:1c:68:99:33:01:c1:1f:9a:
         ae:01:9b:c6:c2:93:cf:9d:c7:c0:b0:ac:34:01:ab:cf:9d:ba:
         d5:f3:68:65:ce:21:ec:79:ac:15:c8:3e:9a:43:b9:d8:6c:01:
         77:05:b9:38:49:b8:7b:71:79:a1:48:76:f9:4c:f8:fe:c7:b4:
         db:87:2e:16:25:fd:37:ad:93:c7:bd:f4:9a:b7:51:2e:28:9e:
         4b:66:cc:d8:01:e3:91:01:79:ee:62:28:ac:9a:9a:d7:0c:c0:
         20:8b:7d:39:ea:2d:08:b6:c1:b0:fa:8a:f3:54:8d:c8:71:05:
         7c:50:cc:b6:f6:d5:b5:76:a2:9c:7a:d5:57:e8:fb:b5:31:06:
         6c:fe:5e:82:db:f1:45:2f:46:bc:6b:9b:35:16:ad:f8:b7:c9:
         06:a6:1b:31:4c:65:8b:1e:f1:85:64:ff:22:08:c8:34:e3:57:
         3d:df:bb:02
-----BEGIN CERTIFICATE-----
MIIFXDCCBESgAwIBAgIBATANBgkqhkiG9w0BAQsFADCBkjELMAkGA1UEBhMCRlIx
DzANBgNVBAgMBlJhZGl1czESMBAGA1UEBwwJU29tZXdoZXJlMRQwEgYDVQQKDAtF
eGFtcGxlIEluYzEgMB4GCSqGSIb3DQEJARYRYWRtaW5AZXhhbXBsZS5vcmcxJjAk
BgNVBAMMHUV4YW1wbGUgQ2VydGlmaWNhdGUgQXV0aG9yaXR5MB4XDTIxMDMyNTE5
MTIzNloXDTIxMDUyNDE5MTIzNlowezELMAkGA1UEBhMCRlIxDzANBgNVBAgMBlJh
ZGl1czEUMBIGA1UECgwLRXhhbXBsZSBJbmMxIzAhBgNVBAMMGkV4YW1wbGUgU2Vy
dmVyIENlcnRpZmljYXRlMSAwHgYJKoZIhvcNAQkBFhFhZG1pbkBleGFtcGxlLm9y
ZzCCASIwDQYJKoZIhvcNAQEBBQADggEPADCCAQoCggEBAOlyHXuMs6dudwt8rXe0
WNU8vYMpdDlCjPngv2wineCTL/Q2aEnZwQGYSY6VLpKW4s2POhFqZ6GeUVpQHbjy
/MultpIFN66l9WvxUEX3KKOiWL1MxQ90nN78U3BGGOUiiq1kOxFnG2mSfKoz45CW
4gYfJvT3oDTKmN0QcrJ9Gs6dBzwNEbxQANeHYRqlSnkVKgtPPvnQW+DHkN9bu5gh
Z2kOtDgkp0yNhJQ4kCbqL8dO0ErunL9V7bkw6EloERbp4kmEYFHFDnqjNdTmEu65
iw7EldP44LfeZ6oXZ+mmC6UJp9ud40aU2PIdJ6rBXW6XjekmwlkC+ruEMBreCJnt
u88CAwEAAaOCAdEwggHNMB0GA1UdDgQWBBQ+BcG3r0PM2LX77yn1H54Ykhd9ADCB
xwYDVR0jBIG/MIG8gBRVph/iNihaYkXlMMRZ1wT0DFFObqGBmKSBlTCBkjELMAkG
A1UEBhMCRlIxDzANBgNVBAgMBlJhZGl1czESMBAGA1UEBwwJU29tZXdoZXJlMRQw
EgYDVQQKDAtFeGFtcGxlIEluYzEgMB4GCSqGSIb3DQEJARYRYWRtaW5AZXhhbXBs
ZS5vcmcxJjAkBgNVBAMMHUV4YW1wbGUgQ2VydGlmaWNhdGUgQXV0aG9yaXR5ggkA
95EDoGFdLnowCQYDVR0TBAIwADALBgNVHQ8EBAMCBeAwHQYDVR0lBBYwFAYIKwYB
BQUHAwEGCCsGAQUFBwMOMDYGA1UdHwQvMC0wK6ApoCeGJWh0dHA6Ly93d3cuZXhh
bXBsZS5jb20vZXhhbXBsZV9jYS5jcmwwNwYIKwYBBQUHAQEEKzApMCcGCCsGAQUF
BzABhhtodHRwOi8vd3d3LmV4YW1wbGUub3JnL29jc3AwOgYDVR0RBDMwMYIScmFk
aXVzLmV4YW1wbGUub3JnoBsGCCsGAQUFBwgIoA8MDSouZXhhbXBsZS5jb20wDQYJ
KoZIhvcNAQELBQADggEBADgD+9B/9viiRBzevgjeiYsr4s/GK0Go+6G6rd3rfSq2
3P4yDNtpAl0Vga3NlS4I3+UednU3sbwlfjIfyzZpsrlYSixTmf+f0pm9sfRjJ/S+
dpIcaJkzAcEfmq4Bm8bCk8+dx8CwrDQBq8+dutXzaGXOIex5rBXIPppDudhsAXcF
uThJuHtxeaFIdvlM+P7HtNuHLhYl/Tetk8e99Jq3US4onktmzNgB45EBee5iKKya
mtcMwCCLfTnqLQi2wbD6ivNUjchxBXxQzLb21bV2opx61Vfo+7UxBmz+XoLb8UUv
RrxrmzUWrfi3yQamGzFMZYse8YVk/yIIyDTjVz3fuwI=
-----END CERTIFICATE-----
