Certificate:
    Data:
        Version: 3 (0x2)
        Serial Number: 1 (0x1)
        Signature Algorithm: sha256WithRSAEncryption
        Issuer: C=FR, ST=Radius, L=Somewhere, O=Example Inc/emailAddress=admin@example.org, CN=Example Certificate Authority
        Validity
            Not Before: Mar 25 14:12:33 2020 GMT
            Not After : Mar 25 14:12:33 2021 GMT
        Subject: C=FR, ST=Radius, O=Example Inc, CN=Example Server Certificate/emailAddress=admin@example.org
        Subject Public Key Info:
            Public Key Algorithm: rsaEncryption
                RSA Public-Key: (2048 bit)
                Modulus:
                    00:ea:56:92:f0:59:73:16:75:7f:f0:96:1f:75:17:
                    29:34:a3:15:b3:91:11:75:72:dd:a0:47:2d:59:36:
                    0b:89:ee:c2:90:f9:fa:b6:81:d4:1e:1a:1f:37:4b:
                    c0:ff:7e:a7:f8:37:27:9e:a9:a3:1d:f0:f9:b9:ab:
                    1e:c8:1c:6d:e3:f5:5d:16:40:8b:0a:fd:3d:a1:b5:
                    2c:a9:87:e3:97:9a:97:5c:76:ec:bb:e0:9a:3d:cb:
                    eb:37:44:b3:01:3e:79:b5:ea:12:22:3d:1f:3f:28:
                    e8:b5:8b:f5:0f:a6:96:e2:5b:da:e5:78:da:6d:e5:
                    85:ca:bd:7f:4e:c8:a9:02:cc:b5:0b:99:a9:f3:25:
                    d6:6f:93:2d:43:0c:5a:01:fe:01:fc:4a:9a:b0:23:
                    ec:3a:cb:d4:84:17:19:07:58:50:31:8a:3f:27:44:
                    15:79:de:c6:ef:cf:89:00:ce:e0:49:6b:e1:93:16:
                    b9:3b:c1:32:0a:29:0c:88:13:0b:c6:81:54:a8:98:
                    77:7e:03:59:46:00:d3:79:fc:00:4c:96:94:d9:4d:
                    0e:3d:99:c7:9a:13:27:41:88:10:73:e7:8d:d7:81:
                    13:90:5b:ce:7e:bb:92:e1:fd:8f:37:5c:c9:35:71:
                    0f:f3:67:4c:cc:3d:13:39:5e:e6:99:c7:52:d8:40:
                    a3:7f
                Exponent: 65537 (0x10001)
        X509v3 extensions:
            X509v3 Basic Constraints: 
                CA:FALSE
            X509v3 Key Usage: 
                Digital Signature, Non Repudiation, Key Encipherment
            X509v3 Extended Key Usage: 
                TLS Web Server Authentication, 1.3.6.1.5.5.7.3.14
            X509v3 CRL Distribution Points: 

                Full Name:
                  URI:http://www.example.com/example_ca.crl

            Authority Information Access: 
                OCSP - URI:http://www.example.org/ocsp

            X509v3 Subject Alternative Name: 
                DNS:radius.example.org, othername:<unsupported>
    Signature Algorithm: sha256WithRSAEncryption
         39:f8:bb:f2:6e:34:58:95:89:2a:91:8d:66:4d:49:d0:14:ea:
         a6:96:3f:61:89:be:0e:97:e1:a0:d4:26:b3:90:bc:0a:78:80:
         0c:c6:d0:f4:c8:d2:ad:9b:14:cf:c7:fa:0e:b4:92:b2:98:7e:
         78:b4:9f:18:c8:4b:86:b2:38:4c:f5:e3:a3:19:04:62:41:07:
         04:a1:b8:41:7a:2b:3d:cd:9f:45:42:ba:25:dd:00:a7:96:f1:
         ef:1d:de:7e:79:92:b7:b0:94:c6:00:a5:81:d4:0f:20:df:dc:
         e7:06:1d:5b:42:0e:17:1d:c0:b0:15:0f:47:f0:d3:ef:d9:32:
         2b:1d:b7:76:9f:73:4f:61:a4:09:f5:fe:c0:1f:f0:5c:0e:10:
         f2:b1:0b:f6:27:b1:83:36:29:90:ef:80:df:5b:80:ba:5c:bd:
         81:50:b7:f1:d2:8d:e8:1d:61:82:25:16:36:60:08:c6:be:e5:
         8e:2b:dc:61:b2:c5:72:3c:d6:4d:f5:98:9b:3a:87:6d:31:0e:
         fa:2a:1a:a7:99:4e:f7:05:89:18:45:0e:c3:48:a4:47:c3:2b:
         35:db:50:25:1c:bc:0e:bd:02:ef:3b:8c:79:49:6e:66:5e:d2:
         9d:66:6d:7c:14:6f:cc:d4:e2:6d:4e:fc:51:15:55:ad:f6:77:
         14:24:43:43
-----BEGIN CERTIFICATE-----
MIIEcTCCA1mgAwIBAgIBATANBgkqhkiG9w0BAQsFADCBkjELMAkGA1UEBhMCRlIx
DzANBgNVBAgMBlJhZGl1czESMBAGA1UEBwwJU29tZXdoZXJlMRQwEgYDVQQKDAtF
eGFtcGxlIEluYzEgMB4GCSqGSIb3DQEJARYRYWRtaW5AZXhhbXBsZS5vcmcxJjAk
BgNVBAMMHUV4YW1wbGUgQ2VydGlmaWNhdGUgQXV0aG9yaXR5MB4XDTIwMDMyNTE0
MTIzM1oXDTIxMDMyNTE0MTIzM1owezELMAkGA1UEBhMCRlIxDzANBgNVBAgMBlJh
ZGl1czEUMBIGA1UECgwLRXhhbXBsZSBJbmMxIzAhBgNVBAMMGkV4YW1wbGUgU2Vy
dmVyIENlcnRpZmljYXRlMSAwHgYJKoZIhvcNAQkBFhFhZG1pbkBleGFtcGxlLm9y
ZzCCASIwDQYJKoZIhvcNAQEBBQADggEPADCCAQoCggEBAOpWkvBZcxZ1f/CWH3UX
KTSjFbOREXVy3aBHLVk2C4nuwpD5+raB1B4aHzdLwP9+p/g3J56pox3w+bmrHsgc
beP1XRZAiwr9PaG1LKmH45eal1x27Lvgmj3L6zdEswE+ebXqEiI9Hz8o6LWL9Q+m
luJb2uV42m3lhcq9f07IqQLMtQuZqfMl1m+TLUMMWgH+AfxKmrAj7DrL1IQXGQdY
UDGKPydEFXnexu/PiQDO4Elr4ZMWuTvBMgopDIgTC8aBVKiYd34DWUYA03n8AEyW
lNlNDj2Zx5oTJ0GIEHPnjdeBE5Bbzn67kuH9jzdcyTVxD/NnTMw9Ezle5pnHUthA
o38CAwEAAaOB5zCB5DAJBgNVHRMEAjAAMAsGA1UdDwQEAwIF4DAdBgNVHSUEFjAU
BggrBgEFBQcDAQYIKwYBBQUHAw4wNgYDVR0fBC8wLTAroCmgJ4YlaHR0cDovL3d3
dy5leGFtcGxlLmNvbS9leGFtcGxlX2NhLmNybDA3BggrBgEFBQcBAQQrMCkwJwYI
KwYBBQUHMAGGG2h0dHA6Ly93d3cuZXhhbXBsZS5vcmcvb2NzcDA6BgNVHREEMzAx
ghJyYWRpdXMuZXhhbXBsZS5vcmegGwYIKwYBBQUHCAigDwwNKi5leGFtcGxlLmNv
bTANBgkqhkiG9w0BAQsFAAOCAQEAOfi78m40WJWJKpGNZk1J0BTqppY/YYm+Dpfh
oNQms5C8CniADMbQ9MjSrZsUz8f6DrSSsph+eLSfGMhLhrI4TPXjoxkEYkEHBKG4
QXorPc2fRUK6Jd0Ap5bx7x3efnmSt7CUxgClgdQPIN/c5wYdW0IOFx3AsBUPR/DT
79kyKx23dp9zT2GkCfX+wB/wXA4Q8rEL9iexgzYpkO+A31uAuly9gVC38dKN6B1h
giUWNmAIxr7ljivcYbLFcjzWTfWYmzqHbTEO+ioap5lO9wWJGEUOw0ikR8MrNdtQ
JRy8Dr0C7zuMeUluZl7SnWZtfBRvzNTibU78URVVrfZ3FCRDQw==
-----END CERTIFICATE-----
