Certificate:
    Data:
        Version: 3 (0x2)
        Serial Number: 2 (0x2)
        Signature Algorithm: md5WithRSAEncryption
        Issuer: C=CA, ST=Province, L=Some City, O=Organization, OU=localhost, CN=Client certificate/emailAddress=client@example.com
        Validity
            Not Before: Jan 25 13:26:10 2004 GMT
            Not After : Jan 24 13:26:10 2005 GMT
        Subject: C=CA, ST=Province, L=Some City, O=Organization, OU=localhost, CN=Root certificate/emailAddress=root@example.com
        Subject Public Key Info:
            Public Key Algorithm: rsaEncryption
            RSA Public Key: (1024 bit)
                Modulus (1024 bit):
                    00:da:c5:25:42:2b:fe:db:08:26:29:a2:cb:a4:4b:
                    34:49:c9:0d:0a:b4:62:fb:72:c8:43:4a:78:20:98:
                    86:3d:7e:b7:d7:e7:00:28:c2:b7:ad:55:5a:51:cc:
                    75:6c:f4:fa:1d:70:91:61:5a:b4:50:d5:28:95:53:
                    ae:66:16:af:f0:14:a5:50:85:d6:b8:fb:4a:ee:98:
                    63:8e:42:61:75:cd:d3:6c:66:5c:63:cd:a1:77:d3:
                    49:20:eb:30:58:5e:dc:87:73:99:9c:29:80:f8:1a:
                    d4:63:8b:bb:ea:1c:82:d0:54:02:3d:b7:ef:24:a3:
                    ec:1c:3f:62:41:a9:03:d7:f3
                Exponent: 65537 (0x10001)
        X509v3 extensions:
            X509v3 Extended Key Usage: 
            TLS Web Server Authentication
    Signature Algorithm: md5WithRSAEncryption
        7a:2d:92:1b:1c:f1:3b:f2:98:2a:91:78:ec:9e:de:6d:88:ed:
        c1:78:a2:e8:bd:40:a0:a0:6f:b6:f0:76:99:57:88:4c:d7:08:
        45:37:08:34:96:fd:18:41:65:29:3f:58:3c:8e:82:40:eb:68:
        e0:42:c9:4b:15:75:2e:4c:07:e8:0d:09:77:9a:fa:3d:d5:5c:
        24:fa:54:ac:29:2d:77:20:5d:1c:24:77:ed:30:d5:9f:57:ca:
        f9:bd:21:ff:2a:8d:16:cc:09:11:c5:0e:4f:29:57:63:fc:b6:
        0e:fa:3c:3d:2d:0e:43:85:0f:6e:6f:be:28:49:02:f6:e8:35:
        03:65
-----BEGIN CERTIFICATE-----
MIICyTCCAjKgAwIBAgIBAjANBgkqhkiG9w0BAQQFADCBnzELMAkGA1UEBhMCQ0Ex
ETAPBgNVBAgTCFByb3ZpbmNlMRIwEAYDVQQHEwlTb21lIENpdHkxFTATBgNVBAoT
DE9yZ2FuaXphdGlvbjESMBAGA1UECxMJbG9jYWxob3N0MRswGQYDVQQDExJDbGll
bnQgY2VydGlmaWNhdGUxITAfBgkqhkiG9w0BCQEWEmNsaWVudEBleGFtcGxlLmNv
bTAeFw0wNDAxMjUxMzI2MTBaFw0wNTAxMjQxMzI2MTBaMIGbMQswCQYDVQQGEwJD
QTERMA8GA1UECBMIUHJvdmluY2UxEjAQBgNVBAcTCVNvbWUgQ2l0eTEVMBMGA1UE
ChMMT3JnYW5pemF0aW9uMRIwEAYDVQQLEwlsb2NhbGhvc3QxGTAXBgNVBAMTEFJv
b3QgY2VydGlmaWNhdGUxHzAdBgkqhkiG9w0BCQEWEHJvb3RAZXhhbXBsZS5jb20w
gZ8wDQYJKoZIhvcNAQEBBQADgY0AMIGJAoGBANrFJUIr/tsIJimiy6RLNEnJDQq0
YvtyyENKeCCYhj1+t9fnACjCt61VWlHMdWz0+h1wkWFatFDVKJVTrmYWr/AUpVCF
1rj7Su6YY45CYXXN02xmXGPNoXfTSSDrMFhe3IdzmZwpgPga1GOLu+ocgtBUAj23
7ySj7Bw/YkGpA9fzAgMBAAGjFzAVMBMGA1UdJQQMMAoGCCsGAQUFBwMBMA0GCSqG
SIb3DQEBBAUAA4GBAHotkhsc8TvymCqReOye3m2I7cF4oui9QKCgb7bwdplXiEzX
CEU3CDSW/RhBZSk/WDyOgkDraOBCyUsVdS5MB+gNCXea+j3VXCT6VKwpLXcgXRwk
d+0w1Z9Xyvm9If8qjRbMCRHFDk8pV2P8tg76PD0tDkOFD25vvihJAvboNQNl
-----END CERTIFICATE-----
