Certificate:
    Data:
        Version: 3 (0x2)
        Serial Number: 2 (0x2)
        Signature Algorithm: sha256WithRSAEncryption
        Issuer: C=FR, ST=Radius, L=Somewhere, O=Example Inc/emailAddress=admin@example.org, CN=Example Certificate Authority
        Validity
            Not Before: Jul 11 12:54:09 2017 GMT
            Not After : Jul 11 12:54:09 2018 GMT
        Subject: C=FR, ST=Radius, O=Example Inc, CN=Example user/emailAddress=user.example@example.org
        Subject Public Key Info:
            Public Key Algorithm: rsaEncryption
            RSA Public Key: (2048 bit)
                Modulus (2048 bit):
                    00:df:58:70:01:47:70:e2:8e:02:b2:26:7f:8b:dd:
                    16:2c:1d:2d:b2:aa:76:02:25:eb:91:64:20:5b:16:
                    19:42:98:b5:9e:b0:5c:71:0a:db:f5:5f:ec:a4:f8:
                    98:37:11:ec:ff:80:a5:98:fc:75:78:fa:c8:ef:7b:
                    75:e6:07:44:27:97:60:32:51:91:c7:0a:f7:5a:b7:
                    5d:7e:34:57:c6:f4:8a:42:82:2e:c3:ad:bc:23:26:
                    03:c4:73:fc:93:a4:67:71:31:19:c6:9c:8a:72:3d:
                    7b:4d:94:08:c6:25:a6:db:7b:1d:81:e1:b2:9b:9c:
                    ff:c4:8e:5c:bf:ce:95:80:d3:e6:78:c5:35:eb:90:
                    a6:19:74:7f:66:71:ff:a7:ea:cb:c6:0b:d0:e5:47:
                    15:c2:8c:bd:c1:5a:19:8b:70:c7:dd:98:c3:06:7f:
                    66:ed:b4:7b:b6:62:73:ce:f5:84:63:16:c0:39:80:
                    80:70:07:36:c2:95:38:d6:06:1b:05:43:35:d1:59:
                    63:f9:65:2c:75:24:09:21:5d:4b:94:9c:7b:1b:09:
                    ba:99:1a:07:c6:56:5a:03:8a:eb:1e:a4:a3:62:0e:
                    03:7f:41:38:af:f3:7e:25:15:87:f5:27:12:08:ce:
                    c0:fd:53:4f:55:1e:d6:94:49:34:13:30:f8:9f:74:
                    a1:3d
                Exponent: 65537 (0x10001)
        X509v3 extensions:
            X509v3 Basic Constraints: 
                CA:FALSE
            X509v3 Key Usage: 
                Digital Signature, Non Repudiation, Key Encipherment
            X509v3 Extended Key Usage: 
                TLS Web Client Authentication
            X509v3 CRL Distribution Points: 
                URI:http://www.example.com/example_ca.crl

            Authority Information Access: 
                OCSP - URI:http://www.example.org/ocsp

    Signature Algorithm: sha256WithRSAEncryption
        0c:ca:ff:8b:0e:13:9a:51:1a:7c:32:a8:60:10:56:5a:98:80:
        d2:4f:6c:90:51:8d:d4:d4:62:85:3c:2b:7a:97:f3:a7:b9:95:
        8e:e1:5b:3f:94:ec:83:cd:75:67:93:48:15:be:70:4a:20:2f:
        49:28:0c:8c:df:24:33:ab:f2:b8:e3:81:b9:f0:c5:55:02:01:
        f5:86:f0:3e:9b:c0:80:54:2b:1b:b4:21:74:10:67:07:85:52:
        c1:0a:b8:2b:8f:bf:81:81:90:d0:74:49:a0:55:88:63:01:66:
        9e:9b:64:8d:20:c7:b9:b5:bd:3f:da:10:8d:ad:7b:f8:72:67:
        13:ea:a9:1e:a5:88:ec:a0:a2:5d:44:1a:41:95:e2:9c:91:48:
        9f:f0:f3:bf:f4:a9:66:ac:84:e8:11:43:6e:12:13:8e:f2:36:
        0f:b6:eb:8d:38:2e:f8:25:f7:7f:6e:32:3b:4a:69:43:68:f5:
        fd:cb:b1:31:05:7e:25:88:6a:6b:cf:92:c8:ec:f1:c5:dc:85:
        6f:7a:0d:65:35:b8:13:fb:d0:2f:65:18:2e:0e:3e:ea:c9:b1:
        60:96:14:93:ff:4e:f3:5c:60:8c:1c:c9:bf:03:57:34:b7:5b:
        55:96:39:d5:41:2e:14:d6:a6:16:43:9c:3f:5e:1e:24:11:75:
        40:88:0f:c4
-----BEGIN CERTIFICATE-----
MIIEJDCCAwygAwIBAgIBAjANBgkqhkiG9w0BAQsFADCBkjELMAkGA1UEBhMCRlIx
DzANBgNVBAgMBlJhZGl1czESMBAGA1UEBwwJU29tZXdoZXJlMRQwEgYDVQQKDAtF
eGFtcGxlIEluYzEgMB4GCSqGSIb3DQEJARYRYWRtaW5AZXhhbXBsZS5vcmcxJjAk
BgNVBAMMHUV4YW1wbGUgQ2VydGlmaWNhdGUgQXV0aG9yaXR5MB4XDTE3MDcxMTEy
NTQwOVoXDTE4MDcxMTEyNTQwOVowdDELMAkGA1UEBhMCRlIxDzANBgNVBAgMBlJh
ZGl1czEUMBIGA1UECgwLRXhhbXBsZSBJbmMxFTATBgNVBAMMDEV4YW1wbGUgdXNl
cjEnMCUGCSqGSIb3DQEJARYYdXNlci5leGFtcGxlQGV4YW1wbGUub3JnMIIBIjAN
BgkqhkiG9w0BAQEFAAOCAQ8AMIIBCgKCAQEA31hwAUdw4o4CsiZ/i90WLB0tsqp2
AiXrkWQgWxYZQpi1nrBccQrb9V/spPiYNxHs/4ClmPx1ePrI73t15gdEJ5dgMlGR
xwr3WrddfjRXxvSKQoIuw628IyYDxHP8k6RncTEZxpyKcj17TZQIxiWm23sdgeGy
m5z/xI5cv86VgNPmeMU165CmGXR/ZnH/p+rLxgvQ5UcVwoy9wVoZi3DH3ZjDBn9m
7bR7tmJzzvWEYxbAOYCAcAc2wpU41gYbBUM10Vlj+WUsdSQJIV1LlJx7Gwm6mRoH
xlZaA4rrHqSjYg4Df0E4r/N+JRWH9ScSCM7A/VNPVR7WlEk0EzD4n3ShPQIDAQAB
o4GhMIGeMAkGA1UdEwQCMAAwCwYDVR0PBAQDAgXgMBMGA1UdJQQMMAoGCCsGAQUF
BwMCMDYGA1UdHwQvMC0wK6ApoCeGJWh0dHA6Ly93d3cuZXhhbXBsZS5jb20vZXhh
bXBsZV9jYS5jcmwwNwYIKwYBBQUHAQEEKzApMCcGCCsGAQUFBzABhhtodHRwOi8v
d3d3LmV4YW1wbGUub3JnL29jc3AwDQYJKoZIhvcNAQELBQADggEBAAzK/4sOE5pR
GnwyqGAQVlqYgNJPbJBRjdTUYoU8K3qX86e5lY7hWz+U7IPNdWeTSBW+cEogL0ko
DIzfJDOr8rjjgbnwxVUCAfWG8D6bwIBUKxu0IXQQZweFUsEKuCuPv4GBkNB0SaBV
iGMBZp6bZI0gx7m1vT/aEI2te/hyZxPqqR6liOygol1EGkGV4pyRSJ/w87/0qWas
hOgRQ24SE47yNg+26404Lvgl939uMjtKaUNo9f3LsTEFfiWIamvPksjs8cXchW96
DWU1uBP70C9lGC4OPurJsWCWFJP/TvNcYIwcyb8DVzS3W1WWOdVBLhTWphZDnD9e
HiQRdUCID8Q=
-----END CERTIFICATE-----
