Certificate:
    Data:
        Version: 3 (0x2)
        Serial Number: 3 (0x3)
        Signature Algorithm: sha256WithRSAEncryption
        Issuer: C=FR, ST=Radius, L=Somewhere, O=Example Inc/emailAddress=admin@example.org, CN=Example Certificate Authority
        Validity
            Not Before: Jul 11 12:54:09 2017 GMT
            Not After : Jul 11 12:54:09 2018 GMT
        Subject: C=FR, ST=Radius, O=Example Inc, CN=Example OCSP Responder Certificate/emailAddress=admin@example.org
        Subject Public Key Info:
            Public Key Algorithm: rsaEncryption
            RSA Public Key: (2048 bit)
                Modulus (2048 bit):
                    00:94:40:5e:9b:a4:04:b5:49:9d:cc:44:57:6e:30:
                    6e:9c:b4:27:38:ef:23:29:92:6b:37:33:7f:f7:bb:
                    a3:32:40:5d:b8:52:39:db:8f:16:5e:73:f3:54:12:
                    b4:61:35:e4:d9:f7:27:13:af:52:ec:69:1b:47:ed:
                    48:4c:62:5e:0c:25:e7:de:c8:c7:4e:10:b2:c1:02:
                    ec:d9:f5:06:3c:81:9a:72:4f:c1:d1:cb:38:21:bb:
                    69:ca:5c:d7:96:27:02:47:59:a8:d0:ee:81:dc:f9:
                    a1:49:6f:87:2a:b5:af:e8:81:48:76:fa:c9:6c:84:
                    4e:99:ed:14:68:1f:f3:9e:4f:31:26:8a:d3:9c:5b:
                    99:8f:48:80:d8:ba:58:92:3c:3a:04:ff:98:f3:05:
                    f5:8e:9b:45:91:f9:3d:37:4e:25:cc:2f:db:8c:ce:
                    28:1f:12:a7:9b:1e:14:f1:76:a8:65:40:69:ec:15:
                    d3:4a:e7:68:64:2b:7e:91:ee:1e:f9:86:6a:9d:a5:
                    54:e5:92:5c:da:05:c8:81:67:31:c0:dc:96:17:28:
                    c8:46:58:9c:a4:20:90:5e:7e:45:df:48:8c:ad:97:
                    b5:5f:00:c5:2b:03:82:d7:07:a0:6e:4a:07:78:8d:
                    de:1f:b7:9d:ec:c5:84:68:ac:cb:56:46:97:06:6d:
                    f0:b3
                Exponent: 65537 (0x10001)
        X509v3 extensions:
            X509v3 Basic Constraints: 
                CA:FALSE
            X509v3 Key Usage: 
                Digital Signature, Non Repudiation, Key Encipherment
            X509v3 Extended Key Usage: 
                OCSP Signing
    Signature Algorithm: sha256WithRSAEncryption
        4d:3e:a4:81:83:c4:51:8d:af:92:e0:af:64:58:31:c2:25:b5:
        60:40:7d:24:85:7b:5c:6f:34:6a:fa:59:f0:70:97:6b:3c:c3:
        55:41:da:50:5c:6d:26:01:e4:0c:0f:2c:89:35:57:b6:7b:50:
        38:4f:93:12:a9:05:76:92:07:4f:bc:c4:88:2d:fa:a2:ae:0c:
        07:21:fd:a8:96:1f:d1:46:b5:37:ea:8e:d0:6a:d2:80:92:09:
        c6:df:87:d6:24:0d:03:c4:d4:87:f1:f8:a4:7f:fb:cb:00:fb:
        c0:60:2f:ef:f1:6a:1e:a7:75:dc:d6:07:07:d2:2e:d3:27:e8:
        83:7b:c6:30:b4:a2:af:b7:f5:20:ca:ee:6b:df:b8:f1:d0:e5:
        74:55:7c:70:35:57:f3:b5:55:a6:ce:fc:51:81:c3:39:f8:e9:
        cc:2b:ed:06:70:6e:cc:d6:33:df:ae:8b:16:09:1f:78:40:97:
        f7:0a:63:ea:5c:93:6f:b1:3d:87:d3:74:22:63:43:4a:9c:78:
        11:f4:02:af:91:55:4e:cc:df:b2:b0:d8:f4:74:5b:ac:8c:ee:
        21:e1:2d:73:9a:eb:5f:aa:ba:3f:07:f7:0f:41:fa:69:ef:19:
        b3:58:83:10:4d:b8:29:91:83:1c:55:c0:80:92:5a:9f:a8:c8:
        2a:2a:ec:c6
-----BEGIN CERTIFICATE-----
MIIDwTCCAqmgAwIBAgIBAzANBgkqhkiG9w0BAQsFADCBkjELMAkGA1UEBhMCRlIx
DzANBgNVBAgMBlJhZGl1czESMBAGA1UEBwwJU29tZXdoZXJlMRQwEgYDVQQKDAtF
eGFtcGxlIEluYzEgMB4GCSqGSIb3DQEJARYRYWRtaW5AZXhhbXBsZS5vcmcxJjAk
BgNVBAMMHUV4YW1wbGUgQ2VydGlmaWNhdGUgQXV0aG9yaXR5MB4XDTE3MDcxMTEy
NTQwOVoXDTE4MDcxMTEyNTQwOVowgYMxCzAJBgNVBAYTAkZSMQ8wDQYDVQQIDAZS
YWRpdXMxFDASBgNVBAoMC0V4YW1wbGUgSW5jMSswKQYDVQQDDCJFeGFtcGxlIE9D
U1AgUmVzcG9uZGVyIENlcnRpZmljYXRlMSAwHgYJKoZIhvcNAQkBFhFhZG1pbkBl
eGFtcGxlLm9yZzCCASIwDQYJKoZIhvcNAQEBBQADggEPADCCAQoCggEBAJRAXpuk
BLVJncxEV24wbpy0JzjvIymSazczf/e7ozJAXbhSOduPFl5z81QStGE15Nn3JxOv
UuxpG0ftSExiXgwl597Ix04QssEC7Nn1BjyBmnJPwdHLOCG7acpc15YnAkdZqNDu
gdz5oUlvhyq1r+iBSHb6yWyETpntFGgf855PMSaK05xbmY9IgNi6WJI8OgT/mPMF
9Y6bRZH5PTdOJcwv24zOKB8Sp5seFPF2qGVAaewV00rnaGQrfpHuHvmGap2lVOWS
XNoFyIFnMcDclhcoyEZYnKQgkF5+Rd9IjK2XtV8AxSsDgtcHoG5KB3iN3h+3nezF
hGisy1ZGlwZt8LMCAwEAAaMvMC0wCQYDVR0TBAIwADALBgNVHQ8EBAMCBeAwEwYD
VR0lBAwwCgYIKwYBBQUHAwkwDQYJKoZIhvcNAQELBQADggEBAE0+pIGDxFGNr5Lg
r2RYMcIltWBAfSSFe1xvNGr6WfBwl2s8w1VB2lBcbSYB5AwPLIk1V7Z7UDhPkxKp
BXaSB0+8xIgt+qKuDAch/aiWH9FGtTfqjtBq0oCSCcbfh9YkDQPE1Ifx+KR/+8sA
+8BgL+/xah6nddzWBwfSLtMn6IN7xjC0oq+39SDK7mvfuPHQ5XRVfHA1V/O1VabO
/FGBwzn46cwr7QZwbszWM9+uixYJH3hAl/cKY+pck2+xPYfTdCJjQ0qceBH0Aq+R
VU7M37Kw2PR0W6yM7iHhLXOa61+quj8H9w9B+mnvGbNYgxBNuCmRgxxVwICSWp+o
yCoq7MY=
-----END CERTIFICATE-----
