Certificate:
    Data:
        Version: 3 (0x2)
        Serial Number: 1 (0x1)
        Signature Algorithm: sha256WithRSAEncryption
        Issuer: C=FR, ST=Radius, L=Somewhere, O=Example Inc/emailAddress=admin@example.org, CN=Example Certificate Authority
        Validity
            Not Before: May 10 14:17:24 2017 GMT
            Not After : May 10 14:17:24 2018 GMT
        Subject: C=FR, ST=Radius, O=Example Inc, CN=Example Server Certificate/emailAddress=admin@example.org
        Subject Public Key Info:
            Public Key Algorithm: rsaEncryption
            RSA Public Key: (2048 bit)
                Modulus (2048 bit):
                    00:be:b1:47:6b:5c:2d:8d:96:a3:2a:92:d0:82:9b:
                    75:68:4f:17:8e:9b:df:38:f3:eb:cd:27:cb:ac:ff:
                    32:1b:7b:48:e3:66:fa:d2:0c:b2:1a:80:71:06:8c:
                    30:16:34:0c:fd:cf:2b:86:c9:02:c1:d8:38:32:16:
                    12:48:30:13:dd:47:cf:16:3f:d3:0d:82:8b:68:4c:
                    7a:14:89:a7:c2:f2:6f:fc:f0:b5:44:45:1a:c6:da:
                    8d:a0:fa:3a:18:b8:46:49:1a:17:a4:f8:8b:27:1b:
                    b4:d9:39:7c:0a:00:27:ec:14:e0:03:43:2c:ae:c0:
                    42:d1:d0:78:8a:f3:11:e1:05:7f:5b:d8:29:1a:40:
                    8c:b4:9a:f5:d7:11:94:2f:92:52:e5:50:d3:42:bb:
                    c0:65:36:1c:1c:ec:a6:c4:1b:55:66:19:dd:33:de:
                    2c:f8:a5:98:aa:c7:f2:1b:45:df:ec:93:60:a9:7b:
                    12:4b:02:13:86:41:01:e9:ac:39:95:ed:d5:ae:96:
                    7d:19:9b:39:2c:1a:69:ee:c7:93:47:5d:2a:a0:70:
                    f5:9c:9f:fc:67:12:5c:41:e8:85:4e:db:a8:9a:d4:
                    94:9b:84:2f:90:fe:7a:27:b8:8d:4a:46:90:72:d0:
                    ce:12:5e:ae:7f:06:29:5d:f2:c7:48:35:c4:53:6a:
                    71:3d
                Exponent: 65537 (0x10001)
        X509v3 extensions:
            X509v3 Basic Constraints: 
                CA:FALSE
            X509v3 Key Usage: 
                Digital Signature, Non Repudiation, Key Encipherment
            X509v3 Extended Key Usage: 
                TLS Web Server Authentication
            X509v3 CRL Distribution Points: 
                URI:http://www.example.com/example_ca.crl

            Authority Information Access: 
                OCSP - URI:http://www.example.org/ocsp

    Signature Algorithm: sha256WithRSAEncryption
        a7:a0:38:f2:fe:03:64:c6:53:25:13:7a:76:16:ce:49:f7:b2:
        2f:25:c5:ae:0d:11:00:49:ab:c8:33:b4:d9:b6:ae:15:35:6c:
        6d:16:db:97:8e:91:ae:4a:a6:9c:e0:16:12:70:c9:35:34:6e:
        8b:5f:4c:06:8a:e3:68:a6:9b:fa:89:92:c2:39:5a:e2:f7:e9:
        f0:89:9e:66:a0:2e:a6:e9:2e:e2:ed:a7:59:bf:65:b5:53:e2:
        14:62:a9:bd:9e:6b:28:6a:f6:4f:5a:0e:cb:b7:b2:b2:bf:40:
        cf:7c:25:12:36:52:5d:b3:dd:f9:e8:1c:99:33:22:5a:33:54:
        4e:08:c1:45:93:93:28:3d:bc:cf:ee:d6:2b:62:78:ed:c3:6f:
        76:61:a0:af:ce:d5:01:25:08:5e:d8:7b:e7:b4:46:da:ca:cf:
        53:be:59:8b:d3:01:83:fe:31:38:78:fe:32:63:38:50:aa:52:
        47:23:04:35:7a:a6:d6:cb:95:fe:03:b7:e2:9a:07:17:5b:85:
        87:f8:dc:48:cd:7c:f8:b8:7c:e8:53:cc:f5:b9:81:7d:bc:65:
        ee:0d:2a:0c:d7:7f:43:d6:4e:d5:cb:3c:ab:62:05:e9:a1:82:
        d7:72:fb:d0:87:de:98:16:0f:9a:62:73:c8:fc:35:cb:72:92:
        84:54:0f:86
-----BEGIN CERTIFICATE-----
MIIEKzCCAxOgAwIBAgIBATANBgkqhkiG9w0BAQsFADCBkjELMAkGA1UEBhMCRlIx
DzANBgNVBAgMBlJhZGl1czESMBAGA1UEBwwJU29tZXdoZXJlMRQwEgYDVQQKDAtF
eGFtcGxlIEluYzEgMB4GCSqGSIb3DQEJARYRYWRtaW5AZXhhbXBsZS5vcmcxJjAk
BgNVBAMMHUV4YW1wbGUgQ2VydGlmaWNhdGUgQXV0aG9yaXR5MB4XDTE3MDUxMDE0
MTcyNFoXDTE4MDUxMDE0MTcyNFowezELMAkGA1UEBhMCRlIxDzANBgNVBAgMBlJh
ZGl1czEUMBIGA1UECgwLRXhhbXBsZSBJbmMxIzAhBgNVBAMMGkV4YW1wbGUgU2Vy
dmVyIENlcnRpZmljYXRlMSAwHgYJKoZIhvcNAQkBFhFhZG1pbkBleGFtcGxlLm9y
ZzCCASIwDQYJKoZIhvcNAQEBBQADggEPADCCAQoCggEBAL6xR2tcLY2WoyqS0IKb
dWhPF46b3zjz680ny6z/Mht7SONm+tIMshqAcQaMMBY0DP3PK4bJAsHYODIWEkgw
E91HzxY/0w2Ci2hMehSJp8Lyb/zwtURFGsbajaD6Ohi4RkkaF6T4iycbtNk5fAoA
J+wU4ANDLK7AQtHQeIrzEeEFf1vYKRpAjLSa9dcRlC+SUuVQ00K7wGU2HBzspsQb
VWYZ3TPeLPilmKrH8htF3+yTYKl7EksCE4ZBAemsOZXt1a6WfRmbOSwaae7Hk0dd
KqBw9Zyf/GcSXEHohU7bqJrUlJuEL5D+eie4jUpGkHLQzhJern8GKV3yx0g1xFNq
cT0CAwEAAaOBoTCBnjAJBgNVHRMEAjAAMAsGA1UdDwQEAwIF4DATBgNVHSUEDDAK
BggrBgEFBQcDATA2BgNVHR8ELzAtMCugKaAnhiVodHRwOi8vd3d3LmV4YW1wbGUu
Y29tL2V4YW1wbGVfY2EuY3JsMDcGCCsGAQUFBwEBBCswKTAnBggrBgEFBQcwAYYb
aHR0cDovL3d3dy5leGFtcGxlLm9yZy9vY3NwMA0GCSqGSIb3DQEBCwUAA4IBAQCn
oDjy/gNkxlMlE3p2Fs5J97IvJcWuDREASavIM7TZtq4VNWxtFtuXjpGuSqac4BYS
cMk1NG6LX0wGiuNoppv6iZLCOVri9+nwiZ5moC6m6S7i7adZv2W1U+IUYqm9nmso
avZPWg7Lt7Kyv0DPfCUSNlJds9356ByZMyJaM1ROCMFFk5MoPbzP7tYrYnjtw292
YaCvztUBJQhe2HvntEbays9TvlmL0wGD/jE4eP4yYzhQqlJHIwQ1eqbWy5X+A7fi
mgcXW4WH+NxIzXz4uHzoU8z1uYF9vGXuDSoM139D1k7VyzyrYgXpoYLXcvvQh96Y
Fg+aYnPI/DXLcpKEVA+G
-----END CERTIFICATE-----
