Certificate:
    Data:
        Version: 3 (0x2)
        Serial Number: 1 (0x1)
        Signature Algorithm: sha256WithRSAEncryption
        Issuer: C=FR, ST=Radius, L=Somewhere, O=Example Inc/emailAddress=admin@example.org, CN=Example Certificate Authority
        Validity
            Not Before: Jul 11 12:54:09 2017 GMT
            Not After : Jul 11 12:54:09 2018 GMT
        Subject: C=FR, ST=Radius, O=Example Inc, CN=Example Server Certificate/emailAddress=admin@example.org
        Subject Public Key Info:
            Public Key Algorithm: rsaEncryption
            RSA Public Key: (2048 bit)
                Modulus (2048 bit):
                    00:b5:41:e1:64:e5:af:99:d8:7a:26:a9:f8:ab:ab:
                    07:dd:79:64:dd:50:83:88:9a:b2:29:ec:0a:35:20:
                    fa:19:cf:14:4d:dc:53:85:b0:66:53:a6:8c:74:67:
                    22:13:eb:8b:3b:bf:35:18:9a:92:b3:74:05:47:05:
                    e9:5a:79:d9:a4:36:02:8c:9c:50:4e:51:75:49:30:
                    31:5e:1f:05:0b:f4:2d:71:71:02:56:9d:fc:65:fc:
                    64:13:8a:05:4e:35:3e:60:6a:f7:bd:38:55:bf:13:
                    21:eb:f8:f2:d3:07:df:b3:3a:f3:7e:db:37:17:c4:
                    98:f4:f1:7d:29:01:c0:75:af:f2:0d:57:a6:00:f6:
                    0c:4c:b2:ed:52:df:bb:8a:4a:a8:c7:9a:a6:47:28:
                    26:c3:41:85:29:73:d8:2f:a3:2d:bb:1f:5c:d8:5e:
                    8c:45:81:d5:8f:68:2d:43:72:5d:23:d0:32:f3:b7:
                    d2:a5:b5:7f:21:74:2f:0f:77:fb:58:5b:76:fd:70:
                    f5:0e:c9:82:d6:e1:71:9b:82:4e:87:62:ab:a9:03:
                    0c:2d:d8:ba:3f:27:2c:33:26:3b:19:ec:c2:3d:c1:
                    6d:bc:72:97:64:4e:b9:50:49:85:1f:6d:d2:fc:1e:
                    40:bd:80:3c:c7:f9:63:6d:15:e8:87:03:88:c5:4d:
                    fe:33
                Exponent: 65537 (0x10001)
        X509v3 extensions:
            X509v3 Basic Constraints: 
                CA:FALSE
            X509v3 Key Usage: 
                Digital Signature, Non Repudiation, Key Encipherment
            X509v3 Extended Key Usage: 
                TLS Web Server Authentication
            X509v3 CRL Distribution Points: 
                URI:http://www.example.com/example_ca.crl

            Authority Information Access: 
                OCSP - URI:http://www.example.org/ocsp

    Signature Algorithm: sha256WithRSAEncryption
        58:e6:7c:84:94:8a:a2:27:51:b7:8c:91:c4:03:e1:76:d2:cb:
        c7:61:1e:d0:77:c0:af:45:ec:0d:0e:cb:38:37:43:8d:ee:a6:
        78:68:3d:5a:68:4b:75:0a:95:9f:35:32:54:c8:0d:df:91:ce:
        62:9e:f7:d0:a8:56:fa:a7:2d:1c:e1:56:15:42:73:86:35:8b:
        ac:37:df:bf:d0:91:70:e8:0a:cd:9e:71:a4:ff:ca:76:ee:bb:
        75:58:f2:ac:c1:51:d9:69:2f:69:cb:f6:8d:97:cf:f8:74:d9:
        0a:e7:d6:56:3f:b8:8e:80:48:9b:1f:ea:a1:4f:f2:70:35:1f:
        49:60:44:ce:72:e3:d6:4a:c1:4d:c5:76:d1:6d:c3:5a:84:c8:
        0e:d3:a6:e9:d6:e3:ec:b4:53:26:c6:8a:e0:0e:eb:56:32:90:
        99:42:55:9f:fc:ad:a2:40:4a:ae:ae:a2:fb:2d:f5:97:bc:aa:
        ef:66:f7:1c:4d:3d:f7:11:b5:09:30:01:ec:f1:69:54:0a:70:
        f8:22:af:0c:be:4f:35:ea:f4:35:89:04:d2:ac:ed:2a:74:05:
        6d:8d:05:63:d7:20:21:cb:f2:7a:94:fc:97:96:a3:34:a7:f3:
        91:ab:fb:cb:f4:26:47:91:9d:1d:6f:ef:4e:d2:82:d0:a8:68:
        f6:c0:28:98
-----BEGIN CERTIFICATE-----
MIIEKzCCAxOgAwIBAgIBATANBgkqhkiG9w0BAQsFADCBkjELMAkGA1UEBhMCRlIx
DzANBgNVBAgMBlJhZGl1czESMBAGA1UEBwwJU29tZXdoZXJlMRQwEgYDVQQKDAtF
eGFtcGxlIEluYzEgMB4GCSqGSIb3DQEJARYRYWRtaW5AZXhhbXBsZS5vcmcxJjAk
BgNVBAMMHUV4YW1wbGUgQ2VydGlmaWNhdGUgQXV0aG9yaXR5MB4XDTE3MDcxMTEy
NTQwOVoXDTE4MDcxMTEyNTQwOVowezELMAkGA1UEBhMCRlIxDzANBgNVBAgMBlJh
ZGl1czEUMBIGA1UECgwLRXhhbXBsZSBJbmMxIzAhBgNVBAMMGkV4YW1wbGUgU2Vy
dmVyIENlcnRpZmljYXRlMSAwHgYJKoZIhvcNAQkBFhFhZG1pbkBleGFtcGxlLm9y
ZzCCASIwDQYJKoZIhvcNAQEBBQADggEPADCCAQoCggEBALVB4WTlr5nYeiap+Kur
B915ZN1Qg4iasinsCjUg+hnPFE3cU4WwZlOmjHRnIhPrizu/NRiakrN0BUcF6Vp5
2aQ2AoycUE5RdUkwMV4fBQv0LXFxAlad/GX8ZBOKBU41PmBq9704Vb8TIev48tMH
37M6837bNxfEmPTxfSkBwHWv8g1XpgD2DEyy7VLfu4pKqMeapkcoJsNBhSlz2C+j
LbsfXNhejEWB1Y9oLUNyXSPQMvO30qW1fyF0Lw93+1hbdv1w9Q7JgtbhcZuCTodi
q6kDDC3Yuj8nLDMmOxnswj3Bbbxyl2ROuVBJhR9t0vweQL2APMf5Y20V6IcDiMVN
/jMCAwEAAaOBoTCBnjAJBgNVHRMEAjAAMAsGA1UdDwQEAwIF4DATBgNVHSUEDDAK
BggrBgEFBQcDATA2BgNVHR8ELzAtMCugKaAnhiVodHRwOi8vd3d3LmV4YW1wbGUu
Y29tL2V4YW1wbGVfY2EuY3JsMDcGCCsGAQUFBwEBBCswKTAnBggrBgEFBQcwAYYb
aHR0cDovL3d3dy5leGFtcGxlLm9yZy9vY3NwMA0GCSqGSIb3DQEBCwUAA4IBAQBY
5nyElIqiJ1G3jJHEA+F20svHYR7Qd8CvRewNDss4N0ON7qZ4aD1aaEt1CpWfNTJU
yA3fkc5invfQqFb6py0c4VYVQnOGNYusN9+/0JFw6ArNnnGk/8p27rt1WPKswVHZ
aS9py/aNl8/4dNkK59ZWP7iOgEibH+qhT/JwNR9JYETOcuPWSsFNxXbRbcNahMgO
06bp1uPstFMmxorgDutWMpCZQlWf/K2iQEqurqL7LfWXvKrvZvccTT33EbUJMAHs
8WlUCnD4Iq8Mvk816vQ1iQTSrO0qdAVtjQVj1yAhy/J6lPyXlqM0p/ORq/vL9CZH
kZ0db+9O0oLQqGj2wCiY
-----END CERTIFICATE-----
